
./target/x86_64-unknown-none/debug/xelf:     file format elf64-x86-64


Disassembly of section .text:

0000000000151000 <_start>:
  151000:	48 89 e7             	mov    %rsp,%rdi
  151003:	48 89 ee             	mov    %rbp,%rsi
  151006:	e8 25 05 00 00       	call   151530 <entry>
  15100b:	48 89 ec             	mov    %rbp,%rsp
  15100e:	5d                   	pop    %rbp
  15100f:	f4                   	hlt

0000000000151010 <_ZN4core3fmt8builders11DebugStruct10field_with17hc64adc6bff822514E>:
  151010:	55                   	push   %rbp
  151011:	48 89 e5             	mov    %rsp,%rbp
  151014:	48 81 ec 80 00 00 00 	sub    $0x80,%rsp
  15101b:	48 89 7d 88          	mov    %rdi,-0x78(%rbp)
  15101f:	48 89 7d d8          	mov    %rdi,-0x28(%rbp)
  151023:	48 89 75 e0          	mov    %rsi,-0x20(%rbp)
  151027:	48 89 55 e8          	mov    %rdx,-0x18(%rbp)
  15102b:	48 89 4d f0          	mov    %rcx,-0x10(%rbp)
  15102f:	8a 47 08             	mov    0x8(%rdi),%al
  151032:	41 88 c0             	mov    %al,%r8b
  151035:	41 80 e0 01          	and    $0x1,%r8b
  151039:	44 88 45 ff          	mov    %r8b,-0x1(%rbp)
  15103d:	48 89 7d 98          	mov    %rdi,-0x68(%rbp)
  151041:	48 89 75 a0          	mov    %rsi,-0x60(%rbp)
  151045:	48 89 55 a8          	mov    %rdx,-0x58(%rbp)
  151049:	48 89 4d b0          	mov    %rcx,-0x50(%rbp)
  15104d:	24 01                	and    $0x1,%al
  15104f:	0f b6 c0             	movzbl %al,%eax
  151052:	48 a9 01 00 00 00    	test   $0x1,%rax
  151058:	74 06                	je     151060 <_ZN4core3fmt8builders11DebugStruct10field_with17hc64adc6bff822514E+0x50>
  15105a:	c6 45 97 01          	movb   $0x1,-0x69(%rbp)
  15105e:	eb 2e                	jmp    15108e <_ZN4core3fmt8builders11DebugStruct10field_with17hc64adc6bff822514E+0x7e>
  151060:	48 8b 45 98          	mov    -0x68(%rbp),%rax
  151064:	48 89 45 b8          	mov    %rax,-0x48(%rbp)
  151068:	48 8b 45 a0          	mov    -0x60(%rbp),%rax
  15106c:	48 89 45 c0          	mov    %rax,-0x40(%rbp)
  151070:	48 8b 45 a8          	mov    -0x58(%rbp),%rax
  151074:	48 89 45 c8          	mov    %rax,-0x38(%rbp)
  151078:	48 8b 45 b0          	mov    -0x50(%rbp),%rax
  15107c:	48 89 45 d0          	mov    %rax,-0x30(%rbp)
  151080:	48 8d 7d b8          	lea    -0x48(%rbp),%rdi
  151084:	e8 27 00 00 00       	call   1510b0 <_ZN4core3fmt8builders11DebugStruct10field_with28_$u7b$$u7b$closure$u7d$$u7d$17h57546997dbce093eE>
  151089:	24 01                	and    $0x1,%al
  15108b:	88 45 97             	mov    %al,-0x69(%rbp)
  15108e:	48 8b 45 88          	mov    -0x78(%rbp),%rax
  151092:	8a 4d 97             	mov    -0x69(%rbp),%cl
  151095:	80 e1 01             	and    $0x1,%cl
  151098:	88 48 08             	mov    %cl,0x8(%rax)
  15109b:	c6 40 09 01          	movb   $0x1,0x9(%rax)
  15109f:	48 81 c4 80 00 00 00 	add    $0x80,%rsp
  1510a6:	5d                   	pop    %rbp
  1510a7:	c3                   	ret
  1510a8:	cc                   	int3
  1510a9:	cc                   	int3
  1510aa:	cc                   	int3
  1510ab:	cc                   	int3
  1510ac:	cc                   	int3
  1510ad:	cc                   	int3
  1510ae:	cc                   	int3
  1510af:	cc                   	int3

00000000001510b0 <_ZN4core3fmt8builders11DebugStruct10field_with28_$u7b$$u7b$closure$u7d$$u7d$17h57546997dbce093eE>:
  1510b0:	55                   	push   %rbp
  1510b1:	48 89 e5             	mov    %rsp,%rbp
  1510b4:	48 81 ec a0 00 00 00 	sub    $0xa0,%rsp
  1510bb:	48 89 bd 60 ff ff ff 	mov    %rdi,-0xa0(%rbp)
  1510c2:	c6 45 bd 01          	movb   $0x1,-0x43(%rbp)
  1510c6:	48 8b 07             	mov    (%rdi),%rax
  1510c9:	48 89 45 f0          	mov    %rax,-0x10(%rbp)
  1510cd:	48 8b 00             	mov    (%rax),%rax
  1510d0:	8b 40 10             	mov    0x10(%rax),%eax
  1510d3:	25 00 00 80 00       	and    $0x800000,%eax
  1510d8:	83 f8 00             	cmp    $0x0,%eax
  1510db:	75 12                	jne    1510ef <_ZN4core3fmt8builders11DebugStruct10field_with28_$u7b$$u7b$closure$u7d$$u7d$17h57546997dbce093eE+0x3f>
  1510dd:	48 8b 85 60 ff ff ff 	mov    -0xa0(%rbp),%rax
  1510e4:	48 8b 00             	mov    (%rax),%rax
  1510e7:	f6 40 09 01          	testb  $0x1,0x9(%rax)
  1510eb:	75 33                	jne    151120 <_ZN4core3fmt8builders11DebugStruct10field_with28_$u7b$$u7b$closure$u7d$$u7d$17h57546997dbce093eE+0x70>
  1510ed:	eb 19                	jmp    151108 <_ZN4core3fmt8builders11DebugStruct10field_with28_$u7b$$u7b$closure$u7d$$u7d$17h57546997dbce093eE+0x58>
  1510ef:	48 8b 85 60 ff ff ff 	mov    -0xa0(%rbp),%rax
  1510f6:	48 8b 00             	mov    (%rax),%rax
  1510f9:	f6 40 09 01          	testb  $0x1,0x9(%rax)
  1510fd:	0f 85 51 01 00 00    	jne    151254 <_ZN4core3fmt8builders11DebugStruct10field_with28_$u7b$$u7b$closure$u7d$$u7d$17h57546997dbce093eE+0x1a4>
  151103:	e9 14 01 00 00       	jmp    15121c <_ZN4core3fmt8builders11DebugStruct10field_with28_$u7b$$u7b$closure$u7d$$u7d$17h57546997dbce093eE+0x16c>
  151108:	48 b8 00 40 15 00 00 	movabs $0x154000,%rax
  15110f:	00 00 00 
  151112:	48 89 45 a8          	mov    %rax,-0x58(%rbp)
  151116:	48 c7 45 b0 03 00 00 	movq   $0x3,-0x50(%rbp)
  15111d:	00 
  15111e:	eb 16                	jmp    151136 <_ZN4core3fmt8builders11DebugStruct10field_with28_$u7b$$u7b$closure$u7d$$u7d$17h57546997dbce093eE+0x86>
  151120:	48 b8 03 40 15 00 00 	movabs $0x154003,%rax
  151127:	00 00 00 
  15112a:	48 89 45 a8          	mov    %rax,-0x58(%rbp)
  15112e:	48 c7 45 b0 02 00 00 	movq   $0x2,-0x50(%rbp)
  151135:	00 
  151136:	48 8b 85 60 ff ff ff 	mov    -0xa0(%rbp),%rax
  15113d:	48 8b 00             	mov    (%rax),%rax
  151140:	48 8b 38             	mov    (%rax),%rdi
  151143:	48 8b 75 a8          	mov    -0x58(%rbp),%rsi
  151147:	48 8b 55 b0          	mov    -0x50(%rbp),%rdx
  15114b:	e8 10 1e 00 00       	call   152f60 <_ZN4core3fmt9Formatter9write_str17h8fd6fdb639a653d7E>
  151150:	88 c1                	mov    %al,%cl
  151152:	80 e1 01             	and    $0x1,%cl
  151155:	88 4d f9             	mov    %cl,-0x7(%rbp)
  151158:	24 01                	and    $0x1,%al
  15115a:	0f b6 c0             	movzbl %al,%eax
  15115d:	48 a9 01 00 00 00    	test   $0x1,%rax
  151163:	74 0c                	je     151171 <_ZN4core3fmt8builders11DebugStruct10field_with28_$u7b$$u7b$closure$u7d$$u7d$17h57546997dbce093eE+0xc1>
  151165:	c6 85 6f ff ff ff 01 	movb   $0x1,-0x91(%rbp)
  15116c:	e9 9a 00 00 00       	jmp    15120b <_ZN4core3fmt8builders11DebugStruct10field_with28_$u7b$$u7b$closure$u7d$$u7d$17h57546997dbce093eE+0x15b>
  151171:	48 8b 85 60 ff ff ff 	mov    -0xa0(%rbp),%rax
  151178:	48 8b 08             	mov    (%rax),%rcx
  15117b:	48 8b 39             	mov    (%rcx),%rdi
  15117e:	48 8b 70 08          	mov    0x8(%rax),%rsi
  151182:	48 8b 50 10          	mov    0x10(%rax),%rdx
  151186:	e8 d5 1d 00 00       	call   152f60 <_ZN4core3fmt9Formatter9write_str17h8fd6fdb639a653d7E>
  15118b:	88 c1                	mov    %al,%cl
  15118d:	80 e1 01             	and    $0x1,%cl
  151190:	88 4d fa             	mov    %cl,-0x6(%rbp)
  151193:	24 01                	and    $0x1,%al
  151195:	0f b6 c0             	movzbl %al,%eax
  151198:	48 a9 01 00 00 00    	test   $0x1,%rax
  15119e:	74 09                	je     1511a9 <_ZN4core3fmt8builders11DebugStruct10field_with28_$u7b$$u7b$closure$u7d$$u7d$17h57546997dbce093eE+0xf9>
  1511a0:	c6 85 6f ff ff ff 01 	movb   $0x1,-0x91(%rbp)
  1511a7:	eb 62                	jmp    15120b <_ZN4core3fmt8builders11DebugStruct10field_with28_$u7b$$u7b$closure$u7d$$u7d$17h57546997dbce093eE+0x15b>
  1511a9:	48 8b 85 60 ff ff ff 	mov    -0xa0(%rbp),%rax
  1511b0:	48 8b 00             	mov    (%rax),%rax
  1511b3:	48 8b 38             	mov    (%rax),%rdi
  1511b6:	48 be 05 40 15 00 00 	movabs $0x154005,%rsi
  1511bd:	00 00 00 
  1511c0:	ba 02 00 00 00       	mov    $0x2,%edx
  1511c5:	e8 96 1d 00 00       	call   152f60 <_ZN4core3fmt9Formatter9write_str17h8fd6fdb639a653d7E>
  1511ca:	88 c1                	mov    %al,%cl
  1511cc:	80 e1 01             	and    $0x1,%cl
  1511cf:	88 4d fb             	mov    %cl,-0x5(%rbp)
  1511d2:	24 01                	and    $0x1,%al
  1511d4:	0f b6 c0             	movzbl %al,%eax
  1511d7:	48 a9 01 00 00 00    	test   $0x1,%rax
  1511dd:	74 09                	je     1511e8 <_ZN4core3fmt8builders11DebugStruct10field_with28_$u7b$$u7b$closure$u7d$$u7d$17h57546997dbce093eE+0x138>
  1511df:	c6 85 6f ff ff ff 01 	movb   $0x1,-0x91(%rbp)
  1511e6:	eb 23                	jmp    15120b <_ZN4core3fmt8builders11DebugStruct10field_with28_$u7b$$u7b$closure$u7d$$u7d$17h57546997dbce093eE+0x15b>
  1511e8:	48 8b 85 60 ff ff ff 	mov    -0xa0(%rbp),%rax
  1511ef:	48 8b 78 18          	mov    0x18(%rax),%rdi
  1511f3:	48 8b 00             	mov    (%rax),%rax
  1511f6:	48 8b 30             	mov    (%rax),%rsi
  1511f9:	e8 c2 02 00 00       	call   1514c0 <_ZN54_$LT$$BP$const$u20$T$u20$as$u20$core..fmt..Pointer$GT$3fmt28_$u7b$$u7b$closure$u7d$$u7d$17hd1b666788109f193E>
  1511fe:	24 01                	and    $0x1,%al
  151200:	88 85 6f ff ff ff    	mov    %al,-0x91(%rbp)
  151206:	e9 53 01 00 00       	jmp    15135e <_ZN4core3fmt8builders11DebugStruct10field_with28_$u7b$$u7b$closure$u7d$$u7d$17h57546997dbce093eE+0x2ae>
  15120b:	eb 00                	jmp    15120d <_ZN4core3fmt8builders11DebugStruct10field_with28_$u7b$$u7b$closure$u7d$$u7d$17h57546997dbce093eE+0x15d>
  15120d:	f6 45 bd 01          	testb  $0x1,-0x43(%rbp)
  151211:	0f 85 5d 01 00 00    	jne    151374 <_ZN4core3fmt8builders11DebugStruct10field_with28_$u7b$$u7b$closure$u7d$$u7d$17h57546997dbce093eE+0x2c4>
  151217:	e9 42 01 00 00       	jmp    15135e <_ZN4core3fmt8builders11DebugStruct10field_with28_$u7b$$u7b$closure$u7d$$u7d$17h57546997dbce093eE+0x2ae>
  15121c:	48 8b 85 60 ff ff ff 	mov    -0xa0(%rbp),%rax
  151223:	48 8b 00             	mov    (%rax),%rax
  151226:	48 8b 38             	mov    (%rax),%rdi
  151229:	48 be 07 40 15 00 00 	movabs $0x154007,%rsi
  151230:	00 00 00 
  151233:	ba 03 00 00 00       	mov    $0x3,%edx
  151238:	e8 23 1d 00 00       	call   152f60 <_ZN4core3fmt9Formatter9write_str17h8fd6fdb639a653d7E>
  15123d:	88 c1                	mov    %al,%cl
  15123f:	80 e1 01             	and    $0x1,%cl
  151242:	88 4d fc             	mov    %cl,-0x4(%rbp)
  151245:	24 01                	and    $0x1,%al
  151247:	0f b6 c0             	movzbl %al,%eax
  15124a:	48 a9 01 00 00 00    	test   $0x1,%rax
  151250:	75 61                	jne    1512b3 <_ZN4core3fmt8builders11DebugStruct10field_with28_$u7b$$u7b$closure$u7d$$u7d$17h57546997dbce093eE+0x203>
  151252:	eb 6b                	jmp    1512bf <_ZN4core3fmt8builders11DebugStruct10field_with28_$u7b$$u7b$closure$u7d$$u7d$17h57546997dbce093eE+0x20f>
  151254:	48 8b 85 60 ff ff ff 	mov    -0xa0(%rbp),%rax
  15125b:	48 c7 85 70 ff ff ff 	movq   $0x0,-0x90(%rbp)
  151262:	00 00 00 00 
  151266:	c6 45 8f 01          	movb   $0x1,-0x71(%rbp)
  15126a:	48 8b 00             	mov    (%rax),%rax
  15126d:	48 8b 30             	mov    (%rax),%rsi
  151270:	48 8d 7d 90          	lea    -0x70(%rbp),%rdi
  151274:	48 8d 95 70 ff ff ff 	lea    -0x90(%rbp),%rdx
  15127b:	48 8d 4d 8f          	lea    -0x71(%rbp),%rcx
  15127f:	e8 6c 0f 00 00       	call   1521f0 <_ZN4core3fmt8builders10PadAdapter4wrap17h71657cb2e3a3a702E>
  151284:	48 8b 85 60 ff ff ff 	mov    -0xa0(%rbp),%rax
  15128b:	48 8b 70 08          	mov    0x8(%rax),%rsi
  15128f:	48 8b 50 10          	mov    0x10(%rax),%rdx
  151293:	48 8d 7d 90          	lea    -0x70(%rbp),%rdi
  151297:	e8 c4 1c 00 00       	call   152f60 <_ZN4core3fmt9Formatter9write_str17h8fd6fdb639a653d7E>
  15129c:	88 c1                	mov    %al,%cl
  15129e:	80 e1 01             	and    $0x1,%cl
  1512a1:	88 4d fd             	mov    %cl,-0x3(%rbp)
  1512a4:	24 01                	and    $0x1,%al
  1512a6:	0f b6 c0             	movzbl %al,%eax
  1512a9:	48 a9 01 00 00 00    	test   $0x1,%rax
  1512af:	75 10                	jne    1512c1 <_ZN4core3fmt8builders11DebugStruct10field_with28_$u7b$$u7b$closure$u7d$$u7d$17h57546997dbce093eE+0x211>
  1512b1:	eb 1a                	jmp    1512cd <_ZN4core3fmt8builders11DebugStruct10field_with28_$u7b$$u7b$closure$u7d$$u7d$17h57546997dbce093eE+0x21d>
  1512b3:	c6 85 6f ff ff ff 01 	movb   $0x1,-0x91(%rbp)
  1512ba:	e9 4e ff ff ff       	jmp    15120d <_ZN4core3fmt8builders11DebugStruct10field_with28_$u7b$$u7b$closure$u7d$$u7d$17h57546997dbce093eE+0x15d>
  1512bf:	eb 93                	jmp    151254 <_ZN4core3fmt8builders11DebugStruct10field_with28_$u7b$$u7b$closure$u7d$$u7d$17h57546997dbce093eE+0x1a4>
  1512c1:	c6 85 6f ff ff ff 01 	movb   $0x1,-0x91(%rbp)
  1512c8:	e9 a2 00 00 00       	jmp    15136f <_ZN4core3fmt8builders11DebugStruct10field_with28_$u7b$$u7b$closure$u7d$$u7d$17h57546997dbce093eE+0x2bf>
  1512cd:	48 8d 7d 90          	lea    -0x70(%rbp),%rdi
  1512d1:	48 be 05 40 15 00 00 	movabs $0x154005,%rsi
  1512d8:	00 00 00 
  1512db:	ba 02 00 00 00       	mov    $0x2,%edx
  1512e0:	e8 7b 1c 00 00       	call   152f60 <_ZN4core3fmt9Formatter9write_str17h8fd6fdb639a653d7E>
  1512e5:	88 c1                	mov    %al,%cl
  1512e7:	80 e1 01             	and    $0x1,%cl
  1512ea:	88 4d fe             	mov    %cl,-0x2(%rbp)
  1512ed:	24 01                	and    $0x1,%al
  1512ef:	0f b6 c0             	movzbl %al,%eax
  1512f2:	48 a9 01 00 00 00    	test   $0x1,%rax
  1512f8:	74 09                	je     151303 <_ZN4core3fmt8builders11DebugStruct10field_with28_$u7b$$u7b$closure$u7d$$u7d$17h57546997dbce093eE+0x253>
  1512fa:	c6 85 6f ff ff ff 01 	movb   $0x1,-0x91(%rbp)
  151301:	eb 6c                	jmp    15136f <_ZN4core3fmt8builders11DebugStruct10field_with28_$u7b$$u7b$closure$u7d$$u7d$17h57546997dbce093eE+0x2bf>
  151303:	48 8b 85 60 ff ff ff 	mov    -0xa0(%rbp),%rax
  15130a:	c6 45 bd 00          	movb   $0x0,-0x43(%rbp)
  15130e:	48 8b 78 18          	mov    0x18(%rax),%rdi
  151312:	48 8d 75 90          	lea    -0x70(%rbp),%rsi
  151316:	e8 a5 01 00 00       	call   1514c0 <_ZN54_$LT$$BP$const$u20$T$u20$as$u20$core..fmt..Pointer$GT$3fmt28_$u7b$$u7b$closure$u7d$$u7d$17hd1b666788109f193E>
  15131b:	88 c1                	mov    %al,%cl
  15131d:	80 e1 01             	and    $0x1,%cl
  151320:	88 4d ff             	mov    %cl,-0x1(%rbp)
  151323:	24 01                	and    $0x1,%al
  151325:	0f b6 c0             	movzbl %al,%eax
  151328:	48 a9 01 00 00 00    	test   $0x1,%rax
  15132e:	74 09                	je     151339 <_ZN4core3fmt8builders11DebugStruct10field_with28_$u7b$$u7b$closure$u7d$$u7d$17h57546997dbce093eE+0x289>
  151330:	c6 85 6f ff ff ff 01 	movb   $0x1,-0x91(%rbp)
  151337:	eb 36                	jmp    15136f <_ZN4core3fmt8builders11DebugStruct10field_with28_$u7b$$u7b$closure$u7d$$u7d$17h57546997dbce093eE+0x2bf>
  151339:	48 8d 7d 90          	lea    -0x70(%rbp),%rdi
  15133d:	48 be 0a 40 15 00 00 	movabs $0x15400a,%rsi
  151344:	00 00 00 
  151347:	ba 02 00 00 00       	mov    $0x2,%edx
  15134c:	e8 0f 1c 00 00       	call   152f60 <_ZN4core3fmt9Formatter9write_str17h8fd6fdb639a653d7E>
  151351:	24 01                	and    $0x1,%al
  151353:	88 85 6f ff ff ff    	mov    %al,-0x91(%rbp)
  151359:	e9 a8 fe ff ff       	jmp    151206 <_ZN4core3fmt8builders11DebugStruct10field_with28_$u7b$$u7b$closure$u7d$$u7d$17h57546997dbce093eE+0x156>
  15135e:	8a 85 6f ff ff ff    	mov    -0x91(%rbp),%al
  151364:	24 01                	and    $0x1,%al
  151366:	48 81 c4 a0 00 00 00 	add    $0xa0,%rsp
  15136d:	5d                   	pop    %rbp
  15136e:	c3                   	ret
  15136f:	e9 99 fe ff ff       	jmp    15120d <_ZN4core3fmt8builders11DebugStruct10field_with28_$u7b$$u7b$closure$u7d$$u7d$17h57546997dbce093eE+0x15d>
  151374:	eb e8                	jmp    15135e <_ZN4core3fmt8builders11DebugStruct10field_with28_$u7b$$u7b$closure$u7d$$u7d$17h57546997dbce093eE+0x2ae>
  151376:	cc                   	int3
  151377:	cc                   	int3
  151378:	cc                   	int3
  151379:	cc                   	int3
  15137a:	cc                   	int3
  15137b:	cc                   	int3
  15137c:	cc                   	int3
  15137d:	cc                   	int3
  15137e:	cc                   	int3
  15137f:	cc                   	int3

0000000000151380 <_ZN4core3fmt9Arguments6new_v117h118d11379faf4c6bE>:
  151380:	55                   	push   %rbp
  151381:	48 89 e5             	mov    %rsp,%rbp
  151384:	48 83 ec 10          	sub    $0x10,%rsp
  151388:	48 89 f8             	mov    %rdi,%rax
  15138b:	48 89 75 f0          	mov    %rsi,-0x10(%rbp)
  15138f:	48 89 55 f8          	mov    %rdx,-0x8(%rbp)
  151393:	48 89 37             	mov    %rsi,(%rdi)
  151396:	48 c7 47 08 03 00 00 	movq   $0x3,0x8(%rdi)
  15139d:	00 
  15139e:	48 8b 34 25 10 40 15 	mov    0x154010,%rsi
  1513a5:	00 
  1513a6:	48 8b 0c 25 18 40 15 	mov    0x154018,%rcx
  1513ad:	00 
  1513ae:	48 89 77 20          	mov    %rsi,0x20(%rdi)
  1513b2:	48 89 4f 28          	mov    %rcx,0x28(%rdi)
  1513b6:	48 89 57 10          	mov    %rdx,0x10(%rdi)
  1513ba:	48 c7 47 18 03 00 00 	movq   $0x3,0x18(%rdi)
  1513c1:	00 
  1513c2:	48 83 c4 10          	add    $0x10,%rsp
  1513c6:	5d                   	pop    %rbp
  1513c7:	c3                   	ret
  1513c8:	cc                   	int3
  1513c9:	cc                   	int3
  1513ca:	cc                   	int3
  1513cb:	cc                   	int3
  1513cc:	cc                   	int3
  1513cd:	cc                   	int3
  1513ce:	cc                   	int3
  1513cf:	cc                   	int3

00000000001513d0 <_ZN50_$LT$$BP$mut$u20$T$u20$as$u20$core..fmt..Debug$GT$3fmt17hcca34ad23f66d851E>:
  1513d0:	55                   	push   %rbp
  1513d1:	48 89 e5             	mov    %rsp,%rbp
  1513d4:	48 83 ec 20          	sub    $0x20,%rsp
  1513d8:	48 89 7d f0          	mov    %rdi,-0x10(%rbp)
  1513dc:	48 89 75 f8          	mov    %rsi,-0x8(%rbp)
  1513e0:	48 8b 07             	mov    (%rdi),%rax
  1513e3:	48 89 45 e8          	mov    %rax,-0x18(%rbp)
  1513e7:	48 8d 7d e8          	lea    -0x18(%rbp),%rdi
  1513eb:	e8 10 00 00 00       	call   151400 <_ZN54_$LT$$BP$const$u20$T$u20$as$u20$core..fmt..Pointer$GT$3fmt17hb1c64735304c960aE>
  1513f0:	24 01                	and    $0x1,%al
  1513f2:	48 83 c4 20          	add    $0x20,%rsp
  1513f6:	5d                   	pop    %rbp
  1513f7:	c3                   	ret
  1513f8:	cc                   	int3
  1513f9:	cc                   	int3
  1513fa:	cc                   	int3
  1513fb:	cc                   	int3
  1513fc:	cc                   	int3
  1513fd:	cc                   	int3
  1513fe:	cc                   	int3
  1513ff:	cc                   	int3

0000000000151400 <_ZN54_$LT$$BP$const$u20$T$u20$as$u20$core..fmt..Pointer$GT$3fmt17hb1c64735304c960aE>:
  151400:	55                   	push   %rbp
  151401:	48 89 e5             	mov    %rsp,%rbp
  151404:	48 83 ec 50          	sub    $0x50,%rsp
  151408:	48 89 75 b0          	mov    %rsi,-0x50(%rbp)
  15140c:	48 89 7d b8          	mov    %rdi,-0x48(%rbp)
  151410:	48 89 7d e0          	mov    %rdi,-0x20(%rbp)
  151414:	48 89 75 e8          	mov    %rsi,-0x18(%rbp)
  151418:	e8 d3 01 00 00       	call   1515f0 <_ZN47_$LT$$LP$$RP$$u20$as$u20$core..unit..IsUnit$GT$7is_unit17hd0f66aaaad0ed335E>
  15141d:	a8 01                	test   $0x1,%al
  15141f:	75 77                	jne    151498 <_ZN54_$LT$$BP$const$u20$T$u20$as$u20$core..fmt..Pointer$GT$3fmt17hb1c64735304c960aE+0x98>
  151421:	48 8b 75 b0          	mov    -0x50(%rbp),%rsi
  151425:	48 8d 7d c8          	lea    -0x38(%rbp),%rdi
  151429:	48 ba 20 40 15 00 00 	movabs $0x154020,%rdx
  151430:	00 00 00 
  151433:	b9 07 00 00 00       	mov    $0x7,%ecx
  151438:	e8 43 1b 00 00       	call   152f80 <_ZN4core3fmt9Formatter12debug_struct17h4e20f9212e7c439cE>
  15143d:	48 8b 4d b8          	mov    -0x48(%rbp),%rcx
  151441:	48 8d 7d c8          	lea    -0x38(%rbp),%rdi
  151445:	48 be 27 40 15 00 00 	movabs $0x154027,%rsi
  15144c:	00 00 00 
  15144f:	ba 04 00 00 00       	mov    $0x4,%edx
  151454:	e8 b7 fb ff ff       	call   151010 <_ZN4core3fmt8builders11DebugStruct10field_with17hc64adc6bff822514E>
  151459:	48 89 c7             	mov    %rax,%rdi
  15145c:	48 8b 45 b8          	mov    -0x48(%rbp),%rax
  151460:	48 8b 00             	mov    (%rax),%rax
  151463:	48 89 45 f0          	mov    %rax,-0x10(%rbp)
  151467:	48 be 58 40 15 00 00 	movabs $0x154058,%rsi
  15146e:	00 00 00 
  151471:	ba 08 00 00 00       	mov    $0x8,%edx
  151476:	48 8d 4d df          	lea    -0x21(%rbp),%rcx
  15147a:	49 b8 38 40 15 00 00 	movabs $0x154038,%r8
  151481:	00 00 00 
  151484:	e8 77 10 00 00       	call   152500 <_ZN4core3fmt8builders11DebugStruct5field17h159f822551a85e1bE>
  151489:	48 89 c7             	mov    %rax,%rdi
  15148c:	e8 ff 11 00 00       	call   152690 <_ZN4core3fmt8builders11DebugStruct6finish17hfdafa0672db8f1abE>
  151491:	24 01                	and    $0x1,%al
  151493:	88 45 c7             	mov    %al,-0x39(%rbp)
  151496:	eb 19                	jmp    1514b1 <_ZN54_$LT$$BP$const$u20$T$u20$as$u20$core..fmt..Pointer$GT$3fmt17hb1c64735304c960aE+0xb1>
  151498:	48 8b 75 b0          	mov    -0x50(%rbp),%rsi
  15149c:	48 8b 45 b8          	mov    -0x48(%rbp),%rax
  1514a0:	48 8b 38             	mov    (%rax),%rdi
  1514a3:	48 89 7d f8          	mov    %rdi,-0x8(%rbp)
  1514a7:	e8 54 1b 00 00       	call   153000 <_ZN4core3fmt17pointer_fmt_inner17h6cf5fe4ad8d55d6fE>
  1514ac:	24 01                	and    $0x1,%al
  1514ae:	88 45 c7             	mov    %al,-0x39(%rbp)
  1514b1:	8a 45 c7             	mov    -0x39(%rbp),%al
  1514b4:	24 01                	and    $0x1,%al
  1514b6:	48 83 c4 50          	add    $0x50,%rsp
  1514ba:	5d                   	pop    %rbp
  1514bb:	c3                   	ret
  1514bc:	cc                   	int3
  1514bd:	cc                   	int3
  1514be:	cc                   	int3
  1514bf:	cc                   	int3

00000000001514c0 <_ZN54_$LT$$BP$const$u20$T$u20$as$u20$core..fmt..Pointer$GT$3fmt28_$u7b$$u7b$closure$u7d$$u7d$17hd1b666788109f193E>:
  1514c0:	55                   	push   %rbp
  1514c1:	48 89 e5             	mov    %rsp,%rbp
  1514c4:	48 83 ec 20          	sub    $0x20,%rsp
  1514c8:	48 89 7d e8          	mov    %rdi,-0x18(%rbp)
  1514cc:	48 89 75 f0          	mov    %rsi,-0x10(%rbp)
  1514d0:	48 8b 3f             	mov    (%rdi),%rdi
  1514d3:	48 89 7d f8          	mov    %rdi,-0x8(%rbp)
  1514d7:	e8 24 1b 00 00       	call   153000 <_ZN4core3fmt17pointer_fmt_inner17h6cf5fe4ad8d55d6fE>
  1514dc:	24 01                	and    $0x1,%al
  1514de:	48 83 c4 20          	add    $0x20,%rsp
  1514e2:	5d                   	pop    %rbp
  1514e3:	c3                   	ret
  1514e4:	cc                   	int3
  1514e5:	cc                   	int3
  1514e6:	cc                   	int3
  1514e7:	cc                   	int3
  1514e8:	cc                   	int3
  1514e9:	cc                   	int3
  1514ea:	cc                   	int3
  1514eb:	cc                   	int3
  1514ec:	cc                   	int3
  1514ed:	cc                   	int3
  1514ee:	cc                   	int3
  1514ef:	cc                   	int3

00000000001514f0 <_ZN45_$LT$$LP$$RP$$u20$as$u20$core..fmt..Debug$GT$3fmt17h898e985bda04350bE>:
  1514f0:	55                   	push   %rbp
  1514f1:	48 89 e5             	mov    %rsp,%rbp
  1514f4:	48 83 ec 20          	sub    $0x20,%rsp
  1514f8:	48 89 75 e8          	mov    %rsi,-0x18(%rbp)
  1514fc:	48 89 f8             	mov    %rdi,%rax
  1514ff:	48 8b 7d e8          	mov    -0x18(%rbp),%rdi
  151503:	48 89 45 f0          	mov    %rax,-0x10(%rbp)
  151507:	48 89 7d f8          	mov    %rdi,-0x8(%rbp)
  15150b:	48 be 60 40 15 00 00 	movabs $0x154060,%rsi
  151512:	00 00 00 
  151515:	ba 02 00 00 00       	mov    $0x2,%edx
  15151a:	e8 a1 17 00 00       	call   152cc0 <_ZN4core3fmt9Formatter3pad17hcc41659fc9d5f78fE>
  15151f:	24 01                	and    $0x1,%al
  151521:	48 83 c4 20          	add    $0x20,%rsp
  151525:	5d                   	pop    %rbp
  151526:	c3                   	ret
  151527:	cc                   	int3
  151528:	cc                   	int3
  151529:	cc                   	int3
  15152a:	cc                   	int3
  15152b:	cc                   	int3
  15152c:	cc                   	int3
  15152d:	cc                   	int3
  15152e:	cc                   	int3
  15152f:	cc                   	int3

0000000000151530 <entry>:
  151530:	55                   	push   %rbp
  151531:	48 89 e5             	mov    %rsp,%rbp
  151534:	48 81 ec c0 00 00 00 	sub    $0xc0,%rsp
  15153b:	48 89 bd 48 ff ff ff 	mov    %rdi,-0xb8(%rbp)
  151542:	48 89 b5 50 ff ff ff 	mov    %rsi,-0xb0(%rbp)
  151549:	48 8b 85 48 ff ff ff 	mov    -0xb8(%rbp),%rax
  151550:	48 3b 85 50 ff ff ff 	cmp    -0xb0(%rbp),%rax
  151557:	0f 92 c0             	setb   %al
  15155a:	24 01                	and    $0x1,%al
  15155c:	88 45 d7             	mov    %al,-0x29(%rbp)
  15155f:	48 8d 7d c0          	lea    -0x40(%rbp),%rdi
  151563:	48 8d 75 d7          	lea    -0x29(%rbp),%rsi
  151567:	e8 94 00 00 00       	call   151600 <_ZN4core3fmt2rt8Argument11new_display17had3581e2eebacb19E>
  15156c:	48 8d 7d d8          	lea    -0x28(%rbp),%rdi
  151570:	48 8d b5 48 ff ff ff 	lea    -0xb8(%rbp),%rsi
  151577:	e8 c4 00 00 00       	call   151640 <_ZN4core3fmt2rt8Argument9new_debug17hc692965899f728b4E>
  15157c:	48 8d 7d e8          	lea    -0x18(%rbp),%rdi
  151580:	48 8d b5 50 ff ff ff 	lea    -0xb0(%rbp),%rsi
  151587:	e8 b4 00 00 00       	call   151640 <_ZN4core3fmt2rt8Argument9new_debug17hc692965899f728b4E>
  15158c:	48 8b 45 c0          	mov    -0x40(%rbp),%rax
  151590:	48 89 45 90          	mov    %rax,-0x70(%rbp)
  151594:	48 8b 45 c8          	mov    -0x38(%rbp),%rax
  151598:	48 89 45 98          	mov    %rax,-0x68(%rbp)
  15159c:	48 8b 45 d8          	mov    -0x28(%rbp),%rax
  1515a0:	48 89 45 a0          	mov    %rax,-0x60(%rbp)
  1515a4:	48 8b 45 e0          	mov    -0x20(%rbp),%rax
  1515a8:	48 89 45 a8          	mov    %rax,-0x58(%rbp)
  1515ac:	48 8b 45 e8          	mov    -0x18(%rbp),%rax
  1515b0:	48 89 45 b0          	mov    %rax,-0x50(%rbp)
  1515b4:	48 8b 45 f0          	mov    -0x10(%rbp),%rax
  1515b8:	48 89 45 b8          	mov    %rax,-0x48(%rbp)
  1515bc:	48 8d bd 60 ff ff ff 	lea    -0xa0(%rbp),%rdi
  1515c3:	48 be 68 40 15 00 00 	movabs $0x154068,%rsi
  1515ca:	00 00 00 
  1515cd:	48 8d 55 90          	lea    -0x70(%rbp),%rdx
  1515d1:	e8 aa fd ff ff       	call   151380 <_ZN4core3fmt9Arguments6new_v117h118d11379faf4c6bE>
  1515d6:	48 8d bd 5f ff ff ff 	lea    -0xa1(%rbp),%rdi
  1515dd:	48 8d b5 60 ff ff ff 	lea    -0xa0(%rbp),%rsi
  1515e4:	e8 97 02 00 00       	call   151880 <_ZN4core3fmt5Write9write_fmt17hf30ce6dcb4d49ee7E>
  1515e9:	31 ff                	xor    %edi,%edi
  1515eb:	e8 20 01 00 00       	call   151710 <_ZN7syscall4exit4exit17h0cd4f1127dcc9a3dE>

00000000001515f0 <_ZN47_$LT$$LP$$RP$$u20$as$u20$core..unit..IsUnit$GT$7is_unit17hd0f66aaaad0ed335E>:
  1515f0:	55                   	push   %rbp
  1515f1:	48 89 e5             	mov    %rsp,%rbp
  1515f4:	b0 01                	mov    $0x1,%al
  1515f6:	24 01                	and    $0x1,%al
  1515f8:	5d                   	pop    %rbp
  1515f9:	c3                   	ret
  1515fa:	cc                   	int3
  1515fb:	cc                   	int3
  1515fc:	cc                   	int3
  1515fd:	cc                   	int3
  1515fe:	cc                   	int3
  1515ff:	cc                   	int3

0000000000151600 <_ZN4core3fmt2rt8Argument11new_display17had3581e2eebacb19E>:
  151600:	55                   	push   %rbp
  151601:	48 89 e5             	mov    %rsp,%rbp
  151604:	48 83 ec 18          	sub    $0x18,%rsp
  151608:	48 89 f8             	mov    %rdi,%rax
  15160b:	48 89 75 f8          	mov    %rsi,-0x8(%rbp)
  15160f:	48 89 75 e8          	mov    %rsi,-0x18(%rbp)
  151613:	48 b9 c0 2f 15 00 00 	movabs $0x152fc0,%rcx
  15161a:	00 00 00 
  15161d:	48 89 4d f0          	mov    %rcx,-0x10(%rbp)
  151621:	48 8b 4d e8          	mov    -0x18(%rbp),%rcx
  151625:	48 89 0f             	mov    %rcx,(%rdi)
  151628:	48 8b 4d f0          	mov    -0x10(%rbp),%rcx
  15162c:	48 89 4f 08          	mov    %rcx,0x8(%rdi)
  151630:	48 83 c4 18          	add    $0x18,%rsp
  151634:	5d                   	pop    %rbp
  151635:	c3                   	ret
  151636:	cc                   	int3
  151637:	cc                   	int3
  151638:	cc                   	int3
  151639:	cc                   	int3
  15163a:	cc                   	int3
  15163b:	cc                   	int3
  15163c:	cc                   	int3
  15163d:	cc                   	int3
  15163e:	cc                   	int3
  15163f:	cc                   	int3

0000000000151640 <_ZN4core3fmt2rt8Argument9new_debug17hc692965899f728b4E>:
  151640:	55                   	push   %rbp
  151641:	48 89 e5             	mov    %rsp,%rbp
  151644:	48 83 ec 18          	sub    $0x18,%rsp
  151648:	48 89 f8             	mov    %rdi,%rax
  15164b:	48 89 75 f8          	mov    %rsi,-0x8(%rbp)
  15164f:	48 89 75 e8          	mov    %rsi,-0x18(%rbp)
  151653:	48 b9 d0 13 15 00 00 	movabs $0x1513d0,%rcx
  15165a:	00 00 00 
  15165d:	48 89 4d f0          	mov    %rcx,-0x10(%rbp)
  151661:	48 8b 4d e8          	mov    -0x18(%rbp),%rcx
  151665:	48 89 0f             	mov    %rcx,(%rdi)
  151668:	48 8b 4d f0          	mov    -0x10(%rbp),%rcx
  15166c:	48 89 4f 08          	mov    %rcx,0x8(%rdi)
  151670:	48 83 c4 18          	add    $0x18,%rsp
  151674:	5d                   	pop    %rbp
  151675:	c3                   	ret
  151676:	cc                   	int3
  151677:	cc                   	int3
  151678:	cc                   	int3
  151679:	cc                   	int3
  15167a:	cc                   	int3
  15167b:	cc                   	int3
  15167c:	cc                   	int3
  15167d:	cc                   	int3
  15167e:	cc                   	int3
  15167f:	cc                   	int3

0000000000151680 <_RNvCscSpY9Juk0HT_7___rustc17rust_begin_unwind>:
  151680:	55                   	push   %rbp
  151681:	48 89 e5             	mov    %rsp,%rbp
  151684:	48 81 ec 90 00 00 00 	sub    $0x90,%rsp
  15168b:	48 89 7d f0          	mov    %rdi,-0x10(%rbp)
  15168f:	c7 45 80 05 00 00 00 	movl   $0x5,-0x80(%rbp)
  151696:	8b 45 80             	mov    -0x80(%rbp),%eax
  151699:	ff c8                	dec    %eax
  15169b:	89 85 7c ff ff ff    	mov    %eax,-0x84(%rbp)
  1516a1:	0f 90 c0             	seto   %al
  1516a4:	70 31                	jo     1516d7 <_RNvCscSpY9Juk0HT_7___rustc17rust_begin_unwind+0x57>
  1516a6:	8b 85 7c ff ff ff    	mov    -0x84(%rbp),%eax
  1516ac:	89 45 80             	mov    %eax,-0x80(%rbp)
  1516af:	48 8d 7d 88          	lea    -0x78(%rbp),%rdi
  1516b3:	48 be c8 40 15 00 00 	movabs $0x1540c8,%rsi
  1516ba:	00 00 00 
  1516bd:	e8 7e 07 00 00       	call   151e40 <_ZN4core3fmt9Arguments9new_const17h5e40da3f3e496e29E>
  1516c2:	48 8d 7d 87          	lea    -0x79(%rbp),%rdi
  1516c6:	48 8d 75 88          	lea    -0x78(%rbp),%rsi
  1516ca:	e8 b1 01 00 00       	call   151880 <_ZN4core3fmt5Write9write_fmt17hf30ce6dcb4d49ee7E>
  1516cf:	83 7d 80 00          	cmpl   $0x0,-0x80(%rbp)
  1516d3:	74 11                	je     1516e6 <_RNvCscSpY9Juk0HT_7___rustc17rust_begin_unwind+0x66>
  1516d5:	eb bf                	jmp    151696 <_RNvCscSpY9Juk0HT_7___rustc17rust_begin_unwind+0x16>
  1516d7:	48 bf a8 40 15 00 00 	movabs $0x1540a8,%rdi
  1516de:	00 00 00 
  1516e1:	e8 ca 1e 00 00       	call   1535b0 <_ZN4core9panicking11panic_const24panic_const_sub_overflow17h57aacca942a96484E>
  1516e6:	48 8d 7d c0          	lea    -0x40(%rbp),%rdi
  1516ea:	48 be e0 40 15 00 00 	movabs $0x1540e0,%rsi
  1516f1:	00 00 00 
  1516f4:	e8 47 07 00 00       	call   151e40 <_ZN4core3fmt9Arguments9new_const17h5e40da3f3e496e29E>
  1516f9:	48 8d 7d bf          	lea    -0x41(%rbp),%rdi
  1516fd:	48 8d 75 c0          	lea    -0x40(%rbp),%rsi
  151701:	e8 7a 01 00 00       	call   151880 <_ZN4core3fmt5Write9write_fmt17hf30ce6dcb4d49ee7E>
  151706:	bf 17 00 00 00       	mov    $0x17,%edi
  15170b:	e8 00 00 00 00       	call   151710 <_ZN7syscall4exit4exit17h0cd4f1127dcc9a3dE>

0000000000151710 <_ZN7syscall4exit4exit17h0cd4f1127dcc9a3dE>:
  151710:	55                   	push   %rbp
  151711:	48 89 e5             	mov    %rsp,%rbp
  151714:	48 83 ec 40          	sub    $0x40,%rsp
  151718:	89 7d cc             	mov    %edi,-0x34(%rbp)
  15171b:	89 7d ec             	mov    %edi,-0x14(%rbp)
  15171e:	b8 3c 00 00 00       	mov    $0x3c,%eax
  151723:	48 83 c0 00          	add    $0x0,%rax
  151727:	48 89 45 d0          	mov    %rax,-0x30(%rbp)
  15172b:	0f 90 c0             	seto   %al
  15172e:	70 20                	jo     151750 <_ZN7syscall4exit4exit17h0cd4f1127dcc9a3dE+0x40>
  151730:	48 8b 75 d0          	mov    -0x30(%rbp),%rsi
  151734:	8b 45 cc             	mov    -0x34(%rbp),%eax
  151737:	48 89 75 f0          	mov    %rsi,-0x10(%rbp)
  15173b:	48 63 d0             	movslq %eax,%rdx
  15173e:	48 89 55 f8          	mov    %rdx,-0x8(%rbp)
  151742:	48 8d 7d d8          	lea    -0x28(%rbp),%rdi
  151746:	e8 15 00 00 00       	call   151760 <_ZN4arch6traits8callable8Callable8syscall117hf01f8fa48281a302E>
  15174b:	e8 40 00 00 00       	call   151790 <_ZN4core4hint21unreachable_unchecked17h428bc647eab022dcE>
  151750:	48 bf 10 41 15 00 00 	movabs $0x154110,%rdi
  151757:	00 00 00 
  15175a:	e8 11 1e 00 00       	call   153570 <_ZN4core9panicking11panic_const24panic_const_add_overflow17h0f963a673f748949E>
  15175f:	cc                   	int3

0000000000151760 <_ZN4arch6traits8callable8Callable8syscall117hf01f8fa48281a302E>:
  151760:	55                   	push   %rbp
  151761:	48 89 e5             	mov    %rsp,%rbp
  151764:	48 83 ec 20          	sub    $0x20,%rsp
  151768:	48 89 f8             	mov    %rdi,%rax
  15176b:	48 89 45 e8          	mov    %rax,-0x18(%rbp)
  15176f:	48 89 75 f0          	mov    %rsi,-0x10(%rbp)
  151773:	48 89 55 f8          	mov    %rdx,-0x8(%rbp)
  151777:	e8 44 00 00 00       	call   1517c0 <_ZN4arch7_x86_648callable73_$LT$impl$u20$arch..traits..callable..Callable$u20$for$u20$arch..Arch$GT$9_syscall117hda6d3b63582ceadeE>
  15177c:	48 8b 45 e8          	mov    -0x18(%rbp),%rax
  151780:	48 83 c4 20          	add    $0x20,%rsp
  151784:	5d                   	pop    %rbp
  151785:	c3                   	ret
  151786:	cc                   	int3
  151787:	cc                   	int3
  151788:	cc                   	int3
  151789:	cc                   	int3
  15178a:	cc                   	int3
  15178b:	cc                   	int3
  15178c:	cc                   	int3
  15178d:	cc                   	int3
  15178e:	cc                   	int3
  15178f:	cc                   	int3

0000000000151790 <_ZN4core4hint21unreachable_unchecked17h428bc647eab022dcE>:
  151790:	55                   	push   %rbp
  151791:	48 89 e5             	mov    %rsp,%rbp
  151794:	e8 07 00 00 00       	call   1517a0 <_ZN4core4hint21unreachable_unchecked18precondition_check17h2eb76786ad4de026E>
  151799:	0f 0b                	ud2
  15179b:	cc                   	int3
  15179c:	cc                   	int3
  15179d:	cc                   	int3
  15179e:	cc                   	int3
  15179f:	cc                   	int3

00000000001517a0 <_ZN4core4hint21unreachable_unchecked18precondition_check17h2eb76786ad4de026E>:
  1517a0:	55                   	push   %rbp
  1517a1:	48 89 e5             	mov    %rsp,%rbp
  1517a4:	48 bf 28 41 15 00 00 	movabs $0x154128,%rdi
  1517ab:	00 00 00 
  1517ae:	be c7 00 00 00       	mov    $0xc7,%esi
  1517b3:	e8 e8 09 00 00       	call   1521a0 <_ZN4core9panicking14panic_nounwind17he3ea21695789ac19E>
  1517b8:	cc                   	int3
  1517b9:	cc                   	int3
  1517ba:	cc                   	int3
  1517bb:	cc                   	int3
  1517bc:	cc                   	int3
  1517bd:	cc                   	int3
  1517be:	cc                   	int3
  1517bf:	cc                   	int3

00000000001517c0 <_ZN4arch7_x86_648callable73_$LT$impl$u20$arch..traits..callable..Callable$u20$for$u20$arch..Arch$GT$9_syscall117hda6d3b63582ceadeE>:
  1517c0:	55                   	push   %rbp
  1517c1:	48 89 e5             	mov    %rsp,%rbp
  1517c4:	48 83 ec 40          	sub    $0x40,%rsp
  1517c8:	48 89 55 c0          	mov    %rdx,-0x40(%rbp)
  1517cc:	48 89 f0             	mov    %rsi,%rax
  1517cf:	48 89 f9             	mov    %rdi,%rcx
  1517d2:	48 8b 7d c0          	mov    -0x40(%rbp),%rdi
  1517d6:	48 89 4d c8          	mov    %rcx,-0x38(%rbp)
  1517da:	48 89 4d d0          	mov    %rcx,-0x30(%rbp)
  1517de:	48 89 45 d8          	mov    %rax,-0x28(%rbp)
  1517e2:	48 89 7d e0          	mov    %rdi,-0x20(%rbp)
  1517e6:	48 89 45 f0          	mov    %rax,-0x10(%rbp)
  1517ea:	48 89 7d f8          	mov    %rdi,-0x8(%rbp)
  1517ee:	0f 05                	syscall
  1517f0:	48 8b 7d c8          	mov    -0x38(%rbp),%rdi
  1517f4:	48 89 45 e8          	mov    %rax,-0x18(%rbp)
  1517f8:	48 8b 75 e8          	mov    -0x18(%rbp),%rsi
  1517fc:	e8 df 06 00 00       	call   151ee0 <_ZN6x86_646result13handle_result17h261d5100b7c73311E>
  151801:	48 8b 45 d0          	mov    -0x30(%rbp),%rax
  151805:	48 83 c4 40          	add    $0x40,%rsp
  151809:	5d                   	pop    %rbp
  15180a:	c3                   	ret
  15180b:	cc                   	int3
  15180c:	cc                   	int3
  15180d:	cc                   	int3
  15180e:	cc                   	int3
  15180f:	cc                   	int3

0000000000151810 <_ZN4core3fmt5Write10write_char17he1d2a09aada8d7c9E>:
  151810:	55                   	push   %rbp
  151811:	48 89 e5             	mov    %rsp,%rbp
  151814:	48 83 ec 50          	sub    $0x50,%rsp
  151818:	89 75 bc             	mov    %esi,-0x44(%rbp)
  15181b:	48 89 7d c0          	mov    %rdi,-0x40(%rbp)
  15181f:	48 89 7d d0          	mov    %rdi,-0x30(%rbp)
  151823:	89 75 dc             	mov    %esi,-0x24(%rbp)
  151826:	48 8d 7d cc          	lea    -0x34(%rbp),%rdi
  15182a:	31 f6                	xor    %esi,%esi
  15182c:	ba 04 00 00 00       	mov    $0x4,%edx
  151831:	e8 2a 20 00 00       	call   153860 <memset>
  151836:	8b 7d bc             	mov    -0x44(%rbp),%edi
  151839:	48 8d 45 cc          	lea    -0x34(%rbp),%rax
  15183d:	48 89 45 e0          	mov    %rax,-0x20(%rbp)
  151841:	48 c7 45 e8 04 00 00 	movq   $0x4,-0x18(%rbp)
  151848:	00 
  151849:	48 8d 75 cc          	lea    -0x34(%rbp),%rsi
  15184d:	ba 04 00 00 00       	mov    $0x4,%edx
  151852:	e8 c9 01 00 00       	call   151a20 <_ZN4core4char7methods15encode_utf8_raw17hdaf5f38041d1fefeE>
  151857:	48 8b 7d c0          	mov    -0x40(%rbp),%rdi
  15185b:	48 89 c6             	mov    %rax,%rsi
  15185e:	48 89 75 f0          	mov    %rsi,-0x10(%rbp)
  151862:	48 89 55 f8          	mov    %rdx,-0x8(%rbp)
  151866:	e8 45 07 00 00       	call   151fb0 <_ZN58_$LT$human..stdout..Stdout$u20$as$u20$core..fmt..Write$GT$9write_str17hd4e538c736b2b5a3E>
  15186b:	24 01                	and    $0x1,%al
  15186d:	48 83 c4 50          	add    $0x50,%rsp
  151871:	5d                   	pop    %rbp
  151872:	c3                   	ret
  151873:	cc                   	int3
  151874:	cc                   	int3
  151875:	cc                   	int3
  151876:	cc                   	int3
  151877:	cc                   	int3
  151878:	cc                   	int3
  151879:	cc                   	int3
  15187a:	cc                   	int3
  15187b:	cc                   	int3
  15187c:	cc                   	int3
  15187d:	cc                   	int3
  15187e:	cc                   	int3
  15187f:	cc                   	int3

0000000000151880 <_ZN4core3fmt5Write9write_fmt17hf30ce6dcb4d49ee7E>:
  151880:	55                   	push   %rbp
  151881:	48 89 e5             	mov    %rsp,%rbp
  151884:	48 83 ec 10          	sub    $0x10,%rsp
  151888:	48 89 7d f8          	mov    %rdi,-0x8(%rbp)
  15188c:	e8 0f 00 00 00       	call   1518a0 <_ZN75_$LT$$RF$mut$u20$W$u20$as$u20$core..fmt..Write..write_fmt..SpecWriteFmt$GT$14spec_write_fmt17hba13926ef168f6d3E>
  151891:	24 01                	and    $0x1,%al
  151893:	48 83 c4 10          	add    $0x10,%rsp
  151897:	5d                   	pop    %rbp
  151898:	c3                   	ret
  151899:	cc                   	int3
  15189a:	cc                   	int3
  15189b:	cc                   	int3
  15189c:	cc                   	int3
  15189d:	cc                   	int3
  15189e:	cc                   	int3
  15189f:	cc                   	int3

00000000001518a0 <_ZN75_$LT$$RF$mut$u20$W$u20$as$u20$core..fmt..Write..write_fmt..SpecWriteFmt$GT$14spec_write_fmt17hba13926ef168f6d3E>:
  1518a0:	55                   	push   %rbp
  1518a1:	48 89 e5             	mov    %rsp,%rbp
  1518a4:	48 81 ec c0 00 00 00 	sub    $0xc0,%rsp
  1518ab:	48 89 b5 48 ff ff ff 	mov    %rsi,-0xb8(%rbp)
  1518b2:	48 89 bd 50 ff ff ff 	mov    %rdi,-0xb0(%rbp)
  1518b9:	48 89 7d 98          	mov    %rdi,-0x68(%rbp)
  1518bd:	48 89 75 a0          	mov    %rsi,-0x60(%rbp)
  1518c1:	48 8b 06             	mov    (%rsi),%rax
  1518c4:	48 89 85 58 ff ff ff 	mov    %rax,-0xa8(%rbp)
  1518cb:	48 8b 46 08          	mov    0x8(%rsi),%rax
  1518cf:	48 89 85 60 ff ff ff 	mov    %rax,-0xa0(%rbp)
  1518d6:	48 8b 4e 18          	mov    0x18(%rsi),%rcx
  1518da:	48 89 8d 68 ff ff ff 	mov    %rcx,-0x98(%rbp)
  1518e1:	48 83 f8 00          	cmp    $0x0,%rax
  1518e5:	75 0f                	jne    1518f6 <_ZN75_$LT$$RF$mut$u20$W$u20$as$u20$core..fmt..Write..write_fmt..SpecWriteFmt$GT$14spec_write_fmt17hba13926ef168f6d3E+0x56>
  1518e7:	48 8b 85 68 ff ff ff 	mov    -0x98(%rbp),%rax
  1518ee:	48 83 f8 00          	cmp    $0x0,%rax
  1518f2:	74 11                	je     151905 <_ZN75_$LT$$RF$mut$u20$W$u20$as$u20$core..fmt..Write..write_fmt..SpecWriteFmt$GT$14spec_write_fmt17hba13926ef168f6d3E+0x65>
  1518f4:	eb 22                	jmp    151918 <_ZN75_$LT$$RF$mut$u20$W$u20$as$u20$core..fmt..Write..write_fmt..SpecWriteFmt$GT$14spec_write_fmt17hba13926ef168f6d3E+0x78>
  1518f6:	48 8b 85 60 ff ff ff 	mov    -0xa0(%rbp),%rax
  1518fd:	48 83 f8 01          	cmp    $0x1,%rax
  151901:	74 41                	je     151944 <_ZN75_$LT$$RF$mut$u20$W$u20$as$u20$core..fmt..Write..write_fmt..SpecWriteFmt$GT$14spec_write_fmt17hba13926ef168f6d3E+0xa4>
  151903:	eb 13                	jmp    151918 <_ZN75_$LT$$RF$mut$u20$W$u20$as$u20$core..fmt..Write..write_fmt..SpecWriteFmt$GT$14spec_write_fmt17hba13926ef168f6d3E+0x78>
  151905:	b8 01 00 00 00       	mov    $0x1,%eax
  15190a:	48 89 45 88          	mov    %rax,-0x78(%rbp)
  15190e:	48 c7 45 90 00 00 00 	movq   $0x0,-0x70(%rbp)
  151915:	00 
  151916:	eb 18                	jmp    151930 <_ZN75_$LT$$RF$mut$u20$W$u20$as$u20$core..fmt..Write..write_fmt..SpecWriteFmt$GT$14spec_write_fmt17hba13926ef168f6d3E+0x90>
  151918:	48 8b 0c 25 10 40 15 	mov    0x154010,%rcx
  15191f:	00 
  151920:	48 8b 04 25 18 40 15 	mov    0x154018,%rax
  151927:	00 
  151928:	48 89 4d 88          	mov    %rcx,-0x78(%rbp)
  15192c:	48 89 45 90          	mov    %rax,-0x70(%rbp)
  151930:	48 8d 45 88          	lea    -0x78(%rbp),%rax
  151934:	48 89 45 b0          	mov    %rax,-0x50(%rbp)
  151938:	c6 45 bf 00          	movb   $0x0,-0x41(%rbp)
  15193c:	f6 45 bf 01          	testb  $0x1,-0x41(%rbp)
  151940:	75 2d                	jne    15196f <_ZN75_$LT$$RF$mut$u20$W$u20$as$u20$core..fmt..Write..write_fmt..SpecWriteFmt$GT$14spec_write_fmt17hba13926ef168f6d3E+0xcf>
  151942:	eb 29                	jmp    15196d <_ZN75_$LT$$RF$mut$u20$W$u20$as$u20$core..fmt..Write..write_fmt..SpecWriteFmt$GT$14spec_write_fmt17hba13926ef168f6d3E+0xcd>
  151944:	48 8b 85 68 ff ff ff 	mov    -0x98(%rbp),%rax
  15194b:	48 83 f8 00          	cmp    $0x0,%rax
  15194f:	75 c7                	jne    151918 <_ZN75_$LT$$RF$mut$u20$W$u20$as$u20$core..fmt..Write..write_fmt..SpecWriteFmt$GT$14spec_write_fmt17hba13926ef168f6d3E+0x78>
  151951:	48 8b 85 58 ff ff ff 	mov    -0xa8(%rbp),%rax
  151958:	48 89 45 a8          	mov    %rax,-0x58(%rbp)
  15195c:	48 8b 08             	mov    (%rax),%rcx
  15195f:	48 8b 40 08          	mov    0x8(%rax),%rax
  151963:	48 89 4d 88          	mov    %rcx,-0x78(%rbp)
  151967:	48 89 45 90          	mov    %rax,-0x70(%rbp)
  15196b:	eb c3                	jmp    151930 <_ZN75_$LT$$RF$mut$u20$W$u20$as$u20$core..fmt..Write..write_fmt..SpecWriteFmt$GT$14spec_write_fmt17hba13926ef168f6d3E+0x90>
  15196d:	eb 31                	jmp    1519a0 <_ZN75_$LT$$RF$mut$u20$W$u20$as$u20$core..fmt..Write..write_fmt..SpecWriteFmt$GT$14spec_write_fmt17hba13926ef168f6d3E+0x100>
  15196f:	48 8b 4d 88          	mov    -0x78(%rbp),%rcx
  151973:	48 8b 45 90          	mov    -0x70(%rbp),%rax
  151977:	48 89 8d 78 ff ff ff 	mov    %rcx,-0x88(%rbp)
  15197e:	48 89 45 80          	mov    %rax,-0x80(%rbp)
  151982:	48 8b 95 78 ff ff ff 	mov    -0x88(%rbp),%rdx
  151989:	b8 01 00 00 00       	mov    $0x1,%eax
  15198e:	31 c9                	xor    %ecx,%ecx
  151990:	48 83 fa 00          	cmp    $0x0,%rdx
  151994:	48 0f 44 c1          	cmove  %rcx,%rax
  151998:	48 a9 01 00 00 00    	test   $0x1,%rax
  15199e:	75 39                	jne    1519d9 <_ZN75_$LT$$RF$mut$u20$W$u20$as$u20$core..fmt..Write..write_fmt..SpecWriteFmt$GT$14spec_write_fmt17hba13926ef168f6d3E+0x139>
  1519a0:	48 8b b5 48 ff ff ff 	mov    -0xb8(%rbp),%rsi
  1519a7:	48 8d 7d d0          	lea    -0x30(%rbp),%rdi
  1519ab:	ba 30 00 00 00       	mov    $0x30,%edx
  1519b0:	e8 6b 1e 00 00       	call   153820 <memcpy>
  1519b5:	48 8b bd 50 ff ff ff 	mov    -0xb0(%rbp),%rdi
  1519bc:	48 be f0 41 15 00 00 	movabs $0x1541f0,%rsi
  1519c3:	00 00 00 
  1519c6:	48 8d 55 d0          	lea    -0x30(%rbp),%rdx
  1519ca:	e8 41 0d 00 00       	call   152710 <_ZN4core3fmt5write17h00912665b556baf5E>
  1519cf:	24 01                	and    $0x1,%al
  1519d1:	88 85 77 ff ff ff    	mov    %al,-0x89(%rbp)
  1519d7:	eb 27                	jmp    151a00 <_ZN75_$LT$$RF$mut$u20$W$u20$as$u20$core..fmt..Write..write_fmt..SpecWriteFmt$GT$14spec_write_fmt17hba13926ef168f6d3E+0x160>
  1519d9:	48 8b bd 50 ff ff ff 	mov    -0xb0(%rbp),%rdi
  1519e0:	48 8b b5 78 ff ff ff 	mov    -0x88(%rbp),%rsi
  1519e7:	48 8b 55 80          	mov    -0x80(%rbp),%rdx
  1519eb:	48 89 75 c0          	mov    %rsi,-0x40(%rbp)
  1519ef:	48 89 55 c8          	mov    %rdx,-0x38(%rbp)
  1519f3:	e8 b8 05 00 00       	call   151fb0 <_ZN58_$LT$human..stdout..Stdout$u20$as$u20$core..fmt..Write$GT$9write_str17hd4e538c736b2b5a3E>
  1519f8:	24 01                	and    $0x1,%al
  1519fa:	88 85 77 ff ff ff    	mov    %al,-0x89(%rbp)
  151a00:	8a 85 77 ff ff ff    	mov    -0x89(%rbp),%al
  151a06:	24 01                	and    $0x1,%al
  151a08:	48 81 c4 c0 00 00 00 	add    $0xc0,%rsp
  151a0f:	5d                   	pop    %rbp
  151a10:	c3                   	ret
  151a11:	cc                   	int3
  151a12:	cc                   	int3
  151a13:	cc                   	int3
  151a14:	cc                   	int3
  151a15:	cc                   	int3
  151a16:	cc                   	int3
  151a17:	cc                   	int3
  151a18:	cc                   	int3
  151a19:	cc                   	int3
  151a1a:	cc                   	int3
  151a1b:	cc                   	int3
  151a1c:	cc                   	int3
  151a1d:	cc                   	int3
  151a1e:	cc                   	int3
  151a1f:	cc                   	int3

0000000000151a20 <_ZN4core4char7methods15encode_utf8_raw17hdaf5f38041d1fefeE>:
  151a20:	55                   	push   %rbp
  151a21:	48 89 e5             	mov    %rsp,%rbp
  151a24:	48 81 ec b0 00 00 00 	sub    $0xb0,%rsp
  151a2b:	48 89 95 58 ff ff ff 	mov    %rdx,-0xa8(%rbp)
  151a32:	48 89 b5 60 ff ff ff 	mov    %rsi,-0xa0(%rbp)
  151a39:	89 bd 6c ff ff ff    	mov    %edi,-0x94(%rbp)
  151a3f:	89 bd 7c ff ff ff    	mov    %edi,-0x84(%rbp)
  151a45:	48 89 75 80          	mov    %rsi,-0x80(%rbp)
  151a49:	48 89 55 88          	mov    %rdx,-0x78(%rbp)
  151a4d:	81 ff 80 00 00 00    	cmp    $0x80,%edi
  151a53:	72 0f                	jb     151a64 <_ZN4core4char7methods15encode_utf8_raw17hdaf5f38041d1fefeE+0x44>
  151a55:	8b 85 6c ff ff ff    	mov    -0x94(%rbp),%eax
  151a5b:	3d 00 08 00 00       	cmp    $0x800,%eax
  151a60:	72 2f                	jb     151a91 <_ZN4core4char7methods15encode_utf8_raw17hdaf5f38041d1fefeE+0x71>
  151a62:	eb 1e                	jmp    151a82 <_ZN4core4char7methods15encode_utf8_raw17hdaf5f38041d1fefeE+0x62>
  151a64:	48 8b 85 58 ff ff ff 	mov    -0xa8(%rbp),%rax
  151a6b:	48 c7 85 70 ff ff ff 	movq   $0x1,-0x90(%rbp)
  151a72:	01 00 00 00 
  151a76:	48 83 f8 01          	cmp    $0x1,%rax
  151a7a:	0f 83 9a 01 00 00    	jae    151c1a <_ZN4core4char7methods15encode_utf8_raw17hdaf5f38041d1fefeE+0x1fa>
  151a80:	eb 63                	jmp    151ae5 <_ZN4core4char7methods15encode_utf8_raw17hdaf5f38041d1fefeE+0xc5>
  151a82:	8b 85 6c ff ff ff    	mov    -0x94(%rbp),%eax
  151a88:	3d 00 00 01 00       	cmp    $0x10000,%eax
  151a8d:	72 3a                	jb     151ac9 <_ZN4core4char7methods15encode_utf8_raw17hdaf5f38041d1fefeE+0xa9>
  151a8f:	eb 1e                	jmp    151aaf <_ZN4core4char7methods15encode_utf8_raw17hdaf5f38041d1fefeE+0x8f>
  151a91:	48 8b 85 58 ff ff ff 	mov    -0xa8(%rbp),%rax
  151a98:	48 c7 85 70 ff ff ff 	movq   $0x2,-0x90(%rbp)
  151a9f:	02 00 00 00 
  151aa3:	48 83 f8 02          	cmp    $0x2,%rax
  151aa7:	0f 83 36 01 00 00    	jae    151be3 <_ZN4core4char7methods15encode_utf8_raw17hdaf5f38041d1fefeE+0x1c3>
  151aad:	eb 36                	jmp    151ae5 <_ZN4core4char7methods15encode_utf8_raw17hdaf5f38041d1fefeE+0xc5>
  151aaf:	48 8b 85 58 ff ff ff 	mov    -0xa8(%rbp),%rax
  151ab6:	48 c7 85 70 ff ff ff 	movq   $0x4,-0x90(%rbp)
  151abd:	04 00 00 00 
  151ac1:	48 83 f8 04          	cmp    $0x4,%rax
  151ac5:	73 49                	jae    151b10 <_ZN4core4char7methods15encode_utf8_raw17hdaf5f38041d1fefeE+0xf0>
  151ac7:	eb 1c                	jmp    151ae5 <_ZN4core4char7methods15encode_utf8_raw17hdaf5f38041d1fefeE+0xc5>
  151ac9:	48 8b 85 58 ff ff ff 	mov    -0xa8(%rbp),%rax
  151ad0:	48 c7 85 70 ff ff ff 	movq   $0x3,-0x90(%rbp)
  151ad7:	03 00 00 00 
  151adb:	48 83 f8 03          	cmp    $0x3,%rax
  151adf:	0f 83 b1 00 00 00    	jae    151b96 <_ZN4core4char7methods15encode_utf8_raw17hdaf5f38041d1fefeE+0x176>
  151ae5:	48 8b 95 58 ff ff ff 	mov    -0xa8(%rbp),%rdx
  151aec:	8b bd 6c ff ff ff    	mov    -0x94(%rbp),%edi
  151af2:	48 8b b5 70 ff ff ff 	mov    -0x90(%rbp),%rsi
  151af9:	48 89 75 d8          	mov    %rsi,-0x28(%rbp)
  151afd:	48 89 55 e0          	mov    %rdx,-0x20(%rbp)
  151b01:	48 b9 98 42 15 00 00 	movabs $0x154298,%rcx
  151b08:	00 00 00 
  151b0b:	e8 60 19 00 00       	call   153470 <_ZN4core4char7methods15encode_utf8_raw8do_panic7runtime17ha1c91fb6c2e6f752E>
  151b10:	48 8b 85 60 ff ff ff 	mov    -0xa0(%rbp),%rax
  151b17:	8b 8d 6c ff ff ff    	mov    -0x94(%rbp),%ecx
  151b1d:	48 89 45 90          	mov    %rax,-0x70(%rbp)
  151b21:	48 89 c2             	mov    %rax,%rdx
  151b24:	48 83 c2 01          	add    $0x1,%rdx
  151b28:	48 89 55 98          	mov    %rdx,-0x68(%rbp)
  151b2c:	48 89 c2             	mov    %rax,%rdx
  151b2f:	48 83 c2 02          	add    $0x2,%rdx
  151b33:	48 89 55 a0          	mov    %rdx,-0x60(%rbp)
  151b37:	48 89 c2             	mov    %rax,%rdx
  151b3a:	48 83 c2 03          	add    $0x3,%rdx
  151b3e:	48 89 55 a8          	mov    %rdx,-0x58(%rbp)
  151b42:	89 ca                	mov    %ecx,%edx
  151b44:	c1 ea 12             	shr    $0x12,%edx
  151b47:	83 e2 07             	and    $0x7,%edx
  151b4a:	80 ca f0             	or     $0xf0,%dl
  151b4d:	88 10                	mov    %dl,(%rax)
  151b4f:	89 ca                	mov    %ecx,%edx
  151b51:	c1 ea 0c             	shr    $0xc,%edx
  151b54:	83 e2 3f             	and    $0x3f,%edx
  151b57:	80 ca 80             	or     $0x80,%dl
  151b5a:	88 50 01             	mov    %dl,0x1(%rax)
  151b5d:	89 ca                	mov    %ecx,%edx
  151b5f:	c1 ea 06             	shr    $0x6,%edx
  151b62:	83 e2 3f             	and    $0x3f,%edx
  151b65:	80 ca 80             	or     $0x80,%dl
  151b68:	88 50 02             	mov    %dl,0x2(%rax)
  151b6b:	83 e1 3f             	and    $0x3f,%ecx
  151b6e:	80 c9 80             	or     $0x80,%cl
  151b71:	88 48 03             	mov    %cl,0x3(%rax)
  151b74:	48 8b 85 60 ff ff ff 	mov    -0xa0(%rbp),%rax
  151b7b:	48 89 45 f0          	mov    %rax,-0x10(%rbp)
  151b7f:	48 8b 85 70 ff ff ff 	mov    -0x90(%rbp),%rax
  151b86:	48 89 85 50 ff ff ff 	mov    %rax,-0xb0(%rbp)
  151b8d:	48 89 45 f8          	mov    %rax,-0x8(%rbp)
  151b91:	e9 9c 00 00 00       	jmp    151c32 <_ZN4core4char7methods15encode_utf8_raw17hdaf5f38041d1fefeE+0x212>
  151b96:	48 8b 85 60 ff ff ff 	mov    -0xa0(%rbp),%rax
  151b9d:	8b 8d 6c ff ff ff    	mov    -0x94(%rbp),%ecx
  151ba3:	48 89 45 b0          	mov    %rax,-0x50(%rbp)
  151ba7:	48 89 c2             	mov    %rax,%rdx
  151baa:	48 83 c2 01          	add    $0x1,%rdx
  151bae:	48 89 55 b8          	mov    %rdx,-0x48(%rbp)
  151bb2:	48 89 c2             	mov    %rax,%rdx
  151bb5:	48 83 c2 02          	add    $0x2,%rdx
  151bb9:	48 89 55 c0          	mov    %rdx,-0x40(%rbp)
  151bbd:	89 ca                	mov    %ecx,%edx
  151bbf:	c1 ea 0c             	shr    $0xc,%edx
  151bc2:	83 e2 0f             	and    $0xf,%edx
  151bc5:	80 ca e0             	or     $0xe0,%dl
  151bc8:	88 10                	mov    %dl,(%rax)
  151bca:	89 ca                	mov    %ecx,%edx
  151bcc:	c1 ea 06             	shr    $0x6,%edx
  151bcf:	83 e2 3f             	and    $0x3f,%edx
  151bd2:	80 ca 80             	or     $0x80,%dl
  151bd5:	88 50 01             	mov    %dl,0x1(%rax)
  151bd8:	83 e1 3f             	and    $0x3f,%ecx
  151bdb:	80 c9 80             	or     $0x80,%cl
  151bde:	88 48 02             	mov    %cl,0x2(%rax)
  151be1:	eb 91                	jmp    151b74 <_ZN4core4char7methods15encode_utf8_raw17hdaf5f38041d1fefeE+0x154>
  151be3:	48 8b 85 60 ff ff ff 	mov    -0xa0(%rbp),%rax
  151bea:	8b 8d 6c ff ff ff    	mov    -0x94(%rbp),%ecx
  151bf0:	48 89 45 c8          	mov    %rax,-0x38(%rbp)
  151bf4:	48 89 c2             	mov    %rax,%rdx
  151bf7:	48 83 c2 01          	add    $0x1,%rdx
  151bfb:	48 89 55 d0          	mov    %rdx,-0x30(%rbp)
  151bff:	89 ca                	mov    %ecx,%edx
  151c01:	c1 ea 06             	shr    $0x6,%edx
  151c04:	83 e2 1f             	and    $0x1f,%edx
  151c07:	80 ca c0             	or     $0xc0,%dl
  151c0a:	88 10                	mov    %dl,(%rax)
  151c0c:	83 e1 3f             	and    $0x3f,%ecx
  151c0f:	80 c9 80             	or     $0x80,%cl
  151c12:	88 48 01             	mov    %cl,0x1(%rax)
  151c15:	e9 5a ff ff ff       	jmp    151b74 <_ZN4core4char7methods15encode_utf8_raw17hdaf5f38041d1fefeE+0x154>
  151c1a:	48 8b 85 60 ff ff ff 	mov    -0xa0(%rbp),%rax
  151c21:	8b 8d 6c ff ff ff    	mov    -0x94(%rbp),%ecx
  151c27:	48 89 45 e8          	mov    %rax,-0x18(%rbp)
  151c2b:	88 08                	mov    %cl,(%rax)
  151c2d:	e9 42 ff ff ff       	jmp    151b74 <_ZN4core4char7methods15encode_utf8_raw17hdaf5f38041d1fefeE+0x154>
  151c32:	48 8b 8d 50 ff ff ff 	mov    -0xb0(%rbp),%rcx
  151c39:	48 8b bd 60 ff ff ff 	mov    -0xa0(%rbp),%rdi
  151c40:	ba 01 00 00 00       	mov    $0x1,%edx
  151c45:	48 89 d6             	mov    %rdx,%rsi
  151c48:	e8 23 00 00 00       	call   151c70 <_ZN4core5slice3raw18from_raw_parts_mut18precondition_check17h987e26c2f377d0fbE>
  151c4d:	48 8b 95 50 ff ff ff 	mov    -0xb0(%rbp),%rdx
  151c54:	48 8b 85 60 ff ff ff 	mov    -0xa0(%rbp),%rax
  151c5b:	48 81 c4 b0 00 00 00 	add    $0xb0,%rsp
  151c62:	5d                   	pop    %rbp
  151c63:	c3                   	ret
  151c64:	cc                   	int3
  151c65:	cc                   	int3
  151c66:	cc                   	int3
  151c67:	cc                   	int3
  151c68:	cc                   	int3
  151c69:	cc                   	int3
  151c6a:	cc                   	int3
  151c6b:	cc                   	int3
  151c6c:	cc                   	int3
  151c6d:	cc                   	int3
  151c6e:	cc                   	int3
  151c6f:	cc                   	int3

0000000000151c70 <_ZN4core5slice3raw18from_raw_parts_mut18precondition_check17h987e26c2f377d0fbE>:
  151c70:	55                   	push   %rbp
  151c71:	48 89 e5             	mov    %rsp,%rbp
  151c74:	48 81 ec a0 00 00 00 	sub    $0xa0,%rsp
  151c7b:	48 89 c8             	mov    %rcx,%rax
  151c7e:	48 89 85 68 ff ff ff 	mov    %rax,-0x98(%rbp)
  151c85:	48 89 d1             	mov    %rdx,%rcx
  151c88:	48 89 8d 70 ff ff ff 	mov    %rcx,-0x90(%rbp)
  151c8f:	48 89 b5 78 ff ff ff 	mov    %rsi,-0x88(%rbp)
  151c96:	48 89 7d 80          	mov    %rdi,-0x80(%rbp)
  151c9a:	48 89 7d c0          	mov    %rdi,-0x40(%rbp)
  151c9e:	48 89 75 c8          	mov    %rsi,-0x38(%rbp)
  151ca2:	48 89 4d d0          	mov    %rcx,-0x30(%rbp)
  151ca6:	48 89 45 d8          	mov    %rax,-0x28(%rbp)
  151caa:	c6 45 e6 00          	movb   $0x0,-0x1a(%rbp)
  151cae:	c6 45 e7 00          	movb   $0x0,-0x19(%rbp)
  151cb2:	48 b8 e0 42 15 00 00 	movabs $0x1542e0,%rax
  151cb9:	00 00 00 
  151cbc:	48 89 45 e8          	mov    %rax,-0x18(%rbp)
  151cc0:	48 89 7d f0          	mov    %rdi,-0x10(%rbp)
  151cc4:	48 89 c8             	mov    %rcx,%rax
  151cc7:	48 d1 e8             	shr    $1,%rax
  151cca:	48 ba 55 55 55 55 55 	movabs $0x5555555555555555,%rdx
  151cd1:	55 55 55 
  151cd4:	48 21 d0             	and    %rdx,%rax
  151cd7:	48 29 c1             	sub    %rax,%rcx
  151cda:	48 ba 33 33 33 33 33 	movabs $0x3333333333333333,%rdx
  151ce1:	33 33 33 
  151ce4:	48 89 c8             	mov    %rcx,%rax
  151ce7:	48 21 d0             	and    %rdx,%rax
  151cea:	48 c1 e9 02          	shr    $0x2,%rcx
  151cee:	48 21 d1             	and    %rdx,%rcx
  151cf1:	48 01 c8             	add    %rcx,%rax
  151cf4:	48 89 c1             	mov    %rax,%rcx
  151cf7:	48 c1 e9 04          	shr    $0x4,%rcx
  151cfb:	48 01 c8             	add    %rcx,%rax
  151cfe:	48 b9 0f 0f 0f 0f 0f 	movabs $0xf0f0f0f0f0f0f0f,%rcx
  151d05:	0f 0f 0f 
  151d08:	48 21 c8             	and    %rcx,%rax
  151d0b:	48 b9 01 01 01 01 01 	movabs $0x101010101010101,%rcx
  151d12:	01 01 01 
  151d15:	48 0f af c1          	imul   %rcx,%rax
  151d19:	48 c1 e8 38          	shr    $0x38,%rax
  151d1d:	89 45 fc             	mov    %eax,-0x4(%rbp)
  151d20:	83 7d fc 01          	cmpl   $0x1,-0x4(%rbp)
  151d24:	75 1a                	jne    151d40 <_ZN4core5slice3raw18from_raw_parts_mut18precondition_check17h987e26c2f377d0fbE+0xd0>
  151d26:	48 8b 45 80          	mov    -0x80(%rbp),%rax
  151d2a:	48 8b 8d 70 ff ff ff 	mov    -0x90(%rbp),%rcx
  151d31:	48 83 e9 01          	sub    $0x1,%rcx
  151d35:	48 21 c8             	and    %rcx,%rax
  151d38:	48 83 f8 00          	cmp    $0x0,%rax
  151d3c:	74 54                	je     151d92 <_ZN4core5slice3raw18from_raw_parts_mut18precondition_check17h987e26c2f377d0fbE+0x122>
  151d3e:	eb 65                	jmp    151da5 <_ZN4core5slice3raw18from_raw_parts_mut18precondition_check17h987e26c2f377d0fbE+0x135>
  151d40:	48 b8 e0 42 15 00 00 	movabs $0x1542e0,%rax
  151d47:	00 00 00 
  151d4a:	48 89 45 88          	mov    %rax,-0x78(%rbp)
  151d4e:	48 c7 45 90 01 00 00 	movq   $0x1,-0x70(%rbp)
  151d55:	00 
  151d56:	48 8b 0c 25 10 40 15 	mov    0x154010,%rcx
  151d5d:	00 
  151d5e:	48 8b 04 25 18 40 15 	mov    0x154018,%rax
  151d65:	00 
  151d66:	48 89 4d a8          	mov    %rcx,-0x58(%rbp)
  151d6a:	48 89 45 b0          	mov    %rax,-0x50(%rbp)
  151d6e:	b8 08 00 00 00       	mov    $0x8,%eax
  151d73:	48 89 45 98          	mov    %rax,-0x68(%rbp)
  151d77:	48 c7 45 a0 00 00 00 	movq   $0x0,-0x60(%rbp)
  151d7e:	00 
  151d7f:	48 8d 7d 88          	lea    -0x78(%rbp),%rdi
  151d83:	48 be 08 45 15 00 00 	movabs $0x154508,%rsi
  151d8a:	00 00 00 
  151d8d:	e8 8e 03 00 00       	call   152120 <_ZN4core9panicking9panic_fmt17h94735a1f5f8081b9E>
  151d92:	48 8b 45 80          	mov    -0x80(%rbp),%rax
  151d96:	48 83 f8 00          	cmp    $0x0,%rax
  151d9a:	0f 94 c0             	sete   %al
  151d9d:	34 ff                	xor    $0xff,%al
  151d9f:	a8 01                	test   $0x1,%al
  151da1:	75 06                	jne    151da9 <_ZN4core5slice3raw18from_raw_parts_mut18precondition_check17h987e26c2f377d0fbE+0x139>
  151da3:	eb 02                	jmp    151da7 <_ZN4core5slice3raw18from_raw_parts_mut18precondition_check17h987e26c2f377d0fbE+0x137>
  151da5:	eb 00                	jmp    151da7 <_ZN4core5slice3raw18from_raw_parts_mut18precondition_check17h987e26c2f377d0fbE+0x137>
  151da7:	eb 75                	jmp    151e1e <_ZN4core5slice3raw18from_raw_parts_mut18precondition_check17h987e26c2f377d0fbE+0x1ae>
  151da9:	48 8b 85 78 ff ff ff 	mov    -0x88(%rbp),%rax
  151db0:	48 83 f8 00          	cmp    $0x0,%rax
  151db4:	0f 94 c1             	sete   %cl
  151db7:	88 8d 67 ff ff ff    	mov    %cl,-0x99(%rbp)
  151dbd:	48 83 f8 00          	cmp    $0x0,%rax
  151dc1:	75 0a                	jne    151dcd <_ZN4core5slice3raw18from_raw_parts_mut18precondition_check17h987e26c2f377d0fbE+0x15d>
  151dc3:	48 c7 45 b8 ff ff ff 	movq   $0xffffffffffffffff,-0x48(%rbp)
  151dca:	ff 
  151dcb:	eb 0c                	jmp    151dd9 <_ZN4core5slice3raw18from_raw_parts_mut18precondition_check17h987e26c2f377d0fbE+0x169>
  151dcd:	8a 85 67 ff ff ff    	mov    -0x99(%rbp),%al
  151dd3:	a8 01                	test   $0x1,%al
  151dd5:	75 2d                	jne    151e04 <_ZN4core5slice3raw18from_raw_parts_mut18precondition_check17h987e26c2f377d0fbE+0x194>
  151dd7:	eb 0f                	jmp    151de8 <_ZN4core5slice3raw18from_raw_parts_mut18precondition_check17h987e26c2f377d0fbE+0x178>
  151dd9:	48 8b 85 68 ff ff ff 	mov    -0x98(%rbp),%rax
  151de0:	48 3b 45 b8          	cmp    -0x48(%rbp),%rax
  151de4:	76 2f                	jbe    151e15 <_ZN4core5slice3raw18from_raw_parts_mut18precondition_check17h987e26c2f377d0fbE+0x1a5>
  151de6:	eb 2b                	jmp    151e13 <_ZN4core5slice3raw18from_raw_parts_mut18precondition_check17h987e26c2f377d0fbE+0x1a3>
  151de8:	48 8b 8d 78 ff ff ff 	mov    -0x88(%rbp),%rcx
  151def:	48 b8 ff ff ff ff ff 	movabs $0x7fffffffffffffff,%rax
  151df6:	ff ff 7f 
  151df9:	31 d2                	xor    %edx,%edx
  151dfb:	48 f7 f1             	div    %rcx
  151dfe:	48 89 45 b8          	mov    %rax,-0x48(%rbp)
  151e02:	eb d5                	jmp    151dd9 <_ZN4core5slice3raw18from_raw_parts_mut18precondition_check17h987e26c2f377d0fbE+0x169>
  151e04:	48 bf 60 43 15 00 00 	movabs $0x154360,%rdi
  151e0b:	00 00 00 
  151e0e:	e8 1d 18 00 00       	call   153630 <_ZN4core9panicking11panic_const23panic_const_div_by_zero17h6053ec5858300e52E>
  151e13:	eb 09                	jmp    151e1e <_ZN4core5slice3raw18from_raw_parts_mut18precondition_check17h987e26c2f377d0fbE+0x1ae>
  151e15:	48 81 c4 a0 00 00 00 	add    $0xa0,%rsp
  151e1c:	5d                   	pop    %rbp
  151e1d:	c3                   	ret
  151e1e:	48 bf 78 43 15 00 00 	movabs $0x154378,%rdi
  151e25:	00 00 00 
  151e28:	be 1b 01 00 00       	mov    $0x11b,%esi
  151e2d:	e8 6e 03 00 00       	call   1521a0 <_ZN4core9panicking14panic_nounwind17he3ea21695789ac19E>
  151e32:	cc                   	int3
  151e33:	cc                   	int3
  151e34:	cc                   	int3
  151e35:	cc                   	int3
  151e36:	cc                   	int3
  151e37:	cc                   	int3
  151e38:	cc                   	int3
  151e39:	cc                   	int3
  151e3a:	cc                   	int3
  151e3b:	cc                   	int3
  151e3c:	cc                   	int3
  151e3d:	cc                   	int3
  151e3e:	cc                   	int3
  151e3f:	cc                   	int3

0000000000151e40 <_ZN4core3fmt9Arguments9new_const17h5e40da3f3e496e29E>:
  151e40:	55                   	push   %rbp
  151e41:	48 89 e5             	mov    %rsp,%rbp
  151e44:	50                   	push   %rax
  151e45:	48 89 f8             	mov    %rdi,%rax
  151e48:	48 89 75 f8          	mov    %rsi,-0x8(%rbp)
  151e4c:	48 89 37             	mov    %rsi,(%rdi)
  151e4f:	48 c7 47 08 01 00 00 	movq   $0x1,0x8(%rdi)
  151e56:	00 
  151e57:	48 8b 14 25 10 40 15 	mov    0x154010,%rdx
  151e5e:	00 
  151e5f:	48 8b 0c 25 18 40 15 	mov    0x154018,%rcx
  151e66:	00 
  151e67:	48 89 57 20          	mov    %rdx,0x20(%rdi)
  151e6b:	48 89 4f 28          	mov    %rcx,0x28(%rdi)
  151e6f:	b9 08 00 00 00       	mov    $0x8,%ecx
  151e74:	48 89 4f 10          	mov    %rcx,0x10(%rdi)
  151e78:	48 c7 47 18 00 00 00 	movq   $0x0,0x18(%rdi)
  151e7f:	00 
  151e80:	48 83 c4 08          	add    $0x8,%rsp
  151e84:	5d                   	pop    %rbp
  151e85:	c3                   	ret
  151e86:	cc                   	int3
  151e87:	cc                   	int3
  151e88:	cc                   	int3
  151e89:	cc                   	int3
  151e8a:	cc                   	int3
  151e8b:	cc                   	int3
  151e8c:	cc                   	int3
  151e8d:	cc                   	int3
  151e8e:	cc                   	int3
  151e8f:	cc                   	int3

0000000000151e90 <_ZN60_$LT$x86_64..result..Error$u20$as$u20$result..ErrorTrait$GT$7from_no17h02e2624aa4a04915E>:
  151e90:	55                   	push   %rbp
  151e91:	48 89 e5             	mov    %rsp,%rbp
  151e94:	48 83 ec 20          	sub    $0x20,%rsp
  151e98:	48 89 7d e0          	mov    %rdi,-0x20(%rbp)
  151e9c:	48 89 7d f8          	mov    %rdi,-0x8(%rbp)
  151ea0:	48 b8 00 00 00 00 00 	movabs $0x8000000000000000,%rax
  151ea7:	00 00 80 
  151eaa:	48 39 c7             	cmp    %rax,%rdi
  151ead:	74 1e                	je     151ecd <_ZN60_$LT$x86_64..result..Error$u20$as$u20$result..ErrorTrait$GT$7from_no17h02e2624aa4a04915E+0x3d>
  151eaf:	48 8b 45 e0          	mov    -0x20(%rbp),%rax
  151eb3:	48 89 45 f0          	mov    %rax,-0x10(%rbp)
  151eb7:	48 c7 45 e8 00 00 00 	movq   $0x0,-0x18(%rbp)
  151ebe:	00 
  151ebf:	48 8b 45 e8          	mov    -0x18(%rbp),%rax
  151ec3:	48 8b 55 f0          	mov    -0x10(%rbp),%rdx
  151ec7:	48 83 c4 20          	add    $0x20,%rsp
  151ecb:	5d                   	pop    %rbp
  151ecc:	c3                   	ret
  151ecd:	48 bf 40 45 15 00 00 	movabs $0x154540,%rdi
  151ed4:	00 00 00 
  151ed7:	e8 14 17 00 00       	call   1535f0 <_ZN4core9panicking11panic_const24panic_const_neg_overflow17h03479479c49ca532E>
  151edc:	cc                   	int3
  151edd:	cc                   	int3
  151ede:	cc                   	int3
  151edf:	cc                   	int3

0000000000151ee0 <_ZN6x86_646result13handle_result17h261d5100b7c73311E>:
  151ee0:	55                   	push   %rbp
  151ee1:	48 89 e5             	mov    %rsp,%rbp
  151ee4:	48 83 ec 30          	sub    $0x30,%rsp
  151ee8:	48 89 75 d8          	mov    %rsi,-0x28(%rbp)
  151eec:	48 89 7d e0          	mov    %rdi,-0x20(%rbp)
  151ef0:	48 89 7d e8          	mov    %rdi,-0x18(%rbp)
  151ef4:	48 89 75 f0          	mov    %rsi,-0x10(%rbp)
  151ef8:	48 89 75 f8          	mov    %rsi,-0x8(%rbp)
  151efc:	48 83 fe 00          	cmp    $0x0,%rsi
  151f00:	7c 15                	jl     151f17 <_ZN6x86_646result13handle_result17h261d5100b7c73311E+0x37>
  151f02:	48 8b 45 e0          	mov    -0x20(%rbp),%rax
  151f06:	48 8b 4d d8          	mov    -0x28(%rbp),%rcx
  151f0a:	48 89 48 08          	mov    %rcx,0x8(%rax)
  151f0e:	48 c7 00 01 00 00 00 	movq   $0x1,(%rax)
  151f15:	eb 15                	jmp    151f2c <_ZN6x86_646result13handle_result17h261d5100b7c73311E+0x4c>
  151f17:	48 8b 45 d8          	mov    -0x28(%rbp),%rax
  151f1b:	48 b9 00 00 00 00 00 	movabs $0x8000000000000000,%rcx
  151f22:	00 00 80 
  151f25:	48 39 c8             	cmp    %rcx,%rax
  151f28:	74 2c                	je     151f56 <_ZN6x86_646result13handle_result17h261d5100b7c73311E+0x76>
  151f2a:	eb 0a                	jmp    151f36 <_ZN6x86_646result13handle_result17h261d5100b7c73311E+0x56>
  151f2c:	48 8b 45 e8          	mov    -0x18(%rbp),%rax
  151f30:	48 83 c4 30          	add    $0x30,%rsp
  151f34:	5d                   	pop    %rbp
  151f35:	c3                   	ret
  151f36:	48 8b 45 d8          	mov    -0x28(%rbp),%rax
  151f3a:	31 c9                	xor    %ecx,%ecx
  151f3c:	89 cf                	mov    %ecx,%edi
  151f3e:	48 29 c7             	sub    %rax,%rdi
  151f41:	e8 4a ff ff ff       	call   151e90 <_ZN60_$LT$x86_64..result..Error$u20$as$u20$result..ErrorTrait$GT$7from_no17h02e2624aa4a04915E>
  151f46:	48 89 c1             	mov    %rax,%rcx
  151f49:	48 8b 45 e0          	mov    -0x20(%rbp),%rax
  151f4d:	48 89 08             	mov    %rcx,(%rax)
  151f50:	48 89 50 08          	mov    %rdx,0x8(%rax)
  151f54:	eb d6                	jmp    151f2c <_ZN6x86_646result13handle_result17h261d5100b7c73311E+0x4c>
  151f56:	48 bf 58 45 15 00 00 	movabs $0x154558,%rdi
  151f5d:	00 00 00 
  151f60:	e8 8b 16 00 00       	call   1535f0 <_ZN4core9panicking11panic_const24panic_const_neg_overflow17h03479479c49ca532E>
  151f65:	cc                   	int3
  151f66:	cc                   	int3
  151f67:	cc                   	int3
  151f68:	cc                   	int3
  151f69:	cc                   	int3
  151f6a:	cc                   	int3
  151f6b:	cc                   	int3
  151f6c:	cc                   	int3
  151f6d:	cc                   	int3
  151f6e:	cc                   	int3
  151f6f:	cc                   	int3

0000000000151f70 <_ZN5human6stdout5print17hd55e2769ebb10aa7E>:
  151f70:	55                   	push   %rbp
  151f71:	48 89 e5             	mov    %rsp,%rbp
  151f74:	48 83 ec 30          	sub    $0x30,%rsp
  151f78:	48 89 7d d8          	mov    %rdi,-0x28(%rbp)
  151f7c:	48 89 7d e0          	mov    %rdi,-0x20(%rbp)
  151f80:	48 89 75 e8          	mov    %rsi,-0x18(%rbp)
  151f84:	48 89 7d f0          	mov    %rdi,-0x10(%rbp)
  151f88:	48 89 75 f8          	mov    %rsi,-0x8(%rbp)
  151f8c:	e8 5f 00 00 00       	call   151ff0 <_ZN4core3str21_$LT$impl$u20$str$GT$3len17h9c02169a1ab8f0b4E>
  151f91:	48 8b 75 d8          	mov    -0x28(%rbp),%rsi
  151f95:	48 89 c2             	mov    %rax,%rdx
  151f98:	bf 01 00 00 00       	mov    $0x1,%edi
  151f9d:	e8 6e 00 00 00       	call   152010 <_ZN5human4arch5write17hc4a2892de60294bbE>
  151fa2:	48 83 c4 30          	add    $0x30,%rsp
  151fa6:	5d                   	pop    %rbp
  151fa7:	c3                   	ret
  151fa8:	cc                   	int3
  151fa9:	cc                   	int3
  151faa:	cc                   	int3
  151fab:	cc                   	int3
  151fac:	cc                   	int3
  151fad:	cc                   	int3
  151fae:	cc                   	int3
  151faf:	cc                   	int3

0000000000151fb0 <_ZN58_$LT$human..stdout..Stdout$u20$as$u20$core..fmt..Write$GT$9write_str17hd4e538c736b2b5a3E>:
  151fb0:	55                   	push   %rbp
  151fb1:	48 89 e5             	mov    %rsp,%rbp
  151fb4:	48 83 ec 30          	sub    $0x30,%rsp
  151fb8:	48 89 55 d0          	mov    %rdx,-0x30(%rbp)
  151fbc:	48 89 f0             	mov    %rsi,%rax
  151fbf:	48 8b 75 d0          	mov    -0x30(%rbp),%rsi
  151fc3:	48 89 45 d8          	mov    %rax,-0x28(%rbp)
  151fc7:	48 89 f8             	mov    %rdi,%rax
  151fca:	48 8b 7d d8          	mov    -0x28(%rbp),%rdi
  151fce:	48 89 45 e8          	mov    %rax,-0x18(%rbp)
  151fd2:	48 89 7d f0          	mov    %rdi,-0x10(%rbp)
  151fd6:	48 89 75 f8          	mov    %rsi,-0x8(%rbp)
  151fda:	e8 91 ff ff ff       	call   151f70 <_ZN5human6stdout5print17hd55e2769ebb10aa7E>
  151fdf:	c6 45 e7 00          	movb   $0x0,-0x19(%rbp)
  151fe3:	8a 45 e7             	mov    -0x19(%rbp),%al
  151fe6:	24 01                	and    $0x1,%al
  151fe8:	48 83 c4 30          	add    $0x30,%rsp
  151fec:	5d                   	pop    %rbp
  151fed:	c3                   	ret
  151fee:	cc                   	int3
  151fef:	cc                   	int3

0000000000151ff0 <_ZN4core3str21_$LT$impl$u20$str$GT$3len17h9c02169a1ab8f0b4E>:
  151ff0:	55                   	push   %rbp
  151ff1:	48 89 e5             	mov    %rsp,%rbp
  151ff4:	48 83 ec 10          	sub    $0x10,%rsp
  151ff8:	48 89 f0             	mov    %rsi,%rax
  151ffb:	48 89 7d f0          	mov    %rdi,-0x10(%rbp)
  151fff:	48 89 45 f8          	mov    %rax,-0x8(%rbp)
  152003:	48 83 c4 10          	add    $0x10,%rsp
  152007:	5d                   	pop    %rbp
  152008:	c3                   	ret
  152009:	cc                   	int3
  15200a:	cc                   	int3
  15200b:	cc                   	int3
  15200c:	cc                   	int3
  15200d:	cc                   	int3
  15200e:	cc                   	int3
  15200f:	cc                   	int3

0000000000152010 <_ZN5human4arch5write17hc4a2892de60294bbE>:
  152010:	55                   	push   %rbp
  152011:	48 89 e5             	mov    %rsp,%rbp
  152014:	48 83 ec 50          	sub    $0x50,%rsp
  152018:	48 89 7d b8          	mov    %rdi,-0x48(%rbp)
  15201c:	48 89 75 c0          	mov    %rsi,-0x40(%rbp)
  152020:	48 89 55 c8          	mov    %rdx,-0x38(%rbp)
  152024:	48 c7 45 e0 01 00 00 	movq   $0x1,-0x20(%rbp)
  15202b:	00 
  15202c:	48 89 7d e8          	mov    %rdi,-0x18(%rbp)
  152030:	48 89 75 f0          	mov    %rsi,-0x10(%rbp)
  152034:	48 89 55 f8          	mov    %rdx,-0x8(%rbp)
  152038:	b8 01 00 00 00       	mov    $0x1,%eax
  15203d:	0f 05                	syscall
  15203f:	48 89 45 d8          	mov    %rax,-0x28(%rbp)
  152043:	48 8b 7d d8          	mov    -0x28(%rbp),%rdi
  152047:	48 89 7d d0          	mov    %rdi,-0x30(%rbp)
  15204b:	e8 50 00 00 00       	call   1520a0 <_ZN5human6result13handle_result17h65123c0f010bcb90E>
  152050:	48 83 c4 50          	add    $0x50,%rsp
  152054:	5d                   	pop    %rbp
  152055:	c3                   	ret
  152056:	cc                   	int3
  152057:	cc                   	int3
  152058:	cc                   	int3
  152059:	cc                   	int3
  15205a:	cc                   	int3
  15205b:	cc                   	int3
  15205c:	cc                   	int3
  15205d:	cc                   	int3
  15205e:	cc                   	int3
  15205f:	cc                   	int3

0000000000152060 <_ZN59_$LT$human..result..Error$u20$as$u20$result..ErrorTrait$GT$7from_no17hab00c12f6ef52895E>:
  152060:	55                   	push   %rbp
  152061:	48 89 e5             	mov    %rsp,%rbp
  152064:	48 83 ec 10          	sub    $0x10,%rsp
  152068:	48 89 7d f8          	mov    %rdi,-0x8(%rbp)
  15206c:	48 b8 00 00 00 00 00 	movabs $0x8000000000000000,%rax
  152073:	00 00 80 
  152076:	48 39 c7             	cmp    %rax,%rdi
  152079:	74 12                	je     15208d <_ZN59_$LT$human..result..Error$u20$as$u20$result..ErrorTrait$GT$7from_no17hab00c12f6ef52895E+0x2d>
  15207b:	48 c7 45 f0 00 00 00 	movq   $0x0,-0x10(%rbp)
  152082:	00 
  152083:	48 8b 45 f0          	mov    -0x10(%rbp),%rax
  152087:	48 83 c4 10          	add    $0x10,%rsp
  15208b:	5d                   	pop    %rbp
  15208c:	c3                   	ret
  15208d:	48 bf 90 45 15 00 00 	movabs $0x154590,%rdi
  152094:	00 00 00 
  152097:	e8 54 15 00 00       	call   1535f0 <_ZN4core9panicking11panic_const24panic_const_neg_overflow17h03479479c49ca532E>
  15209c:	cc                   	int3
  15209d:	cc                   	int3
  15209e:	cc                   	int3
  15209f:	cc                   	int3

00000000001520a0 <_ZN5human6result13handle_result17h65123c0f010bcb90E>:
  1520a0:	55                   	push   %rbp
  1520a1:	48 89 e5             	mov    %rsp,%rbp
  1520a4:	48 83 ec 30          	sub    $0x30,%rsp
  1520a8:	48 89 7d d8          	mov    %rdi,-0x28(%rbp)
  1520ac:	48 89 7d f0          	mov    %rdi,-0x10(%rbp)
  1520b0:	48 89 7d f8          	mov    %rdi,-0x8(%rbp)
  1520b4:	48 83 ff 00          	cmp    $0x0,%rdi
  1520b8:	7c 12                	jl     1520cc <_ZN5human6result13handle_result17h65123c0f010bcb90E+0x2c>
  1520ba:	48 8b 45 d8          	mov    -0x28(%rbp),%rax
  1520be:	48 89 45 e8          	mov    %rax,-0x18(%rbp)
  1520c2:	48 c7 45 e0 00 00 00 	movq   $0x0,-0x20(%rbp)
  1520c9:	00 
  1520ca:	eb 15                	jmp    1520e1 <_ZN5human6result13handle_result17h65123c0f010bcb90E+0x41>
  1520cc:	48 8b 45 d8          	mov    -0x28(%rbp),%rax
  1520d0:	48 b9 00 00 00 00 00 	movabs $0x8000000000000000,%rcx
  1520d7:	00 00 80 
  1520da:	48 39 c8             	cmp    %rcx,%rax
  1520dd:	74 2e                	je     15210d <_ZN5human6result13handle_result17h65123c0f010bcb90E+0x6d>
  1520df:	eb 0e                	jmp    1520ef <_ZN5human6result13handle_result17h65123c0f010bcb90E+0x4f>
  1520e1:	48 8b 45 e0          	mov    -0x20(%rbp),%rax
  1520e5:	48 8b 55 e8          	mov    -0x18(%rbp),%rdx
  1520e9:	48 83 c4 30          	add    $0x30,%rsp
  1520ed:	5d                   	pop    %rbp
  1520ee:	c3                   	ret
  1520ef:	48 8b 45 d8          	mov    -0x28(%rbp),%rax
  1520f3:	31 c9                	xor    %ecx,%ecx
  1520f5:	89 cf                	mov    %ecx,%edi
  1520f7:	48 29 c7             	sub    %rax,%rdi
  1520fa:	e8 61 ff ff ff       	call   152060 <_ZN59_$LT$human..result..Error$u20$as$u20$result..ErrorTrait$GT$7from_no17hab00c12f6ef52895E>
  1520ff:	48 89 45 e8          	mov    %rax,-0x18(%rbp)
  152103:	48 c7 45 e0 01 00 00 	movq   $0x1,-0x20(%rbp)
  15210a:	00 
  15210b:	eb d4                	jmp    1520e1 <_ZN5human6result13handle_result17h65123c0f010bcb90E+0x41>
  15210d:	48 bf a8 45 15 00 00 	movabs $0x1545a8,%rdi
  152114:	00 00 00 
  152117:	e8 d4 14 00 00       	call   1535f0 <_ZN4core9panicking11panic_const24panic_const_neg_overflow17h03479479c49ca532E>
  15211c:	cc                   	int3
  15211d:	cc                   	int3
  15211e:	cc                   	int3
  15211f:	cc                   	int3

0000000000152120 <_ZN4core9panicking9panic_fmt17h94735a1f5f8081b9E>:
  152120:	55                   	push   %rbp
  152121:	48 89 e5             	mov    %rsp,%rbp
  152124:	48 83 ec 20          	sub    $0x20,%rsp
  152128:	48 89 7d e8          	mov    %rdi,-0x18(%rbp)
  15212c:	48 89 75 f0          	mov    %rsi,-0x10(%rbp)
  152130:	66 c7 45 f8 01 00    	movw   $0x1,-0x8(%rbp)
  152136:	48 8d 7d e8          	lea    -0x18(%rbp),%rdi
  15213a:	ff 15 50 26 00 00    	call   *0x2650(%rip)        # 154790 <memset+0xf30>

0000000000152140 <_ZN4core9panicking18panic_nounwind_fmt17h339928da69530399E>:
  152140:	55                   	push   %rbp
  152141:	48 89 e5             	mov    %rsp,%rbp
  152144:	48 83 ec 50          	sub    $0x50,%rsp
  152148:	48 8b 47 28          	mov    0x28(%rdi),%rax
  15214c:	48 89 45 e0          	mov    %rax,-0x20(%rbp)
  152150:	48 8b 47 20          	mov    0x20(%rdi),%rax
  152154:	48 89 45 d8          	mov    %rax,-0x28(%rbp)
  152158:	48 8b 47 18          	mov    0x18(%rdi),%rax
  15215c:	48 89 45 d0          	mov    %rax,-0x30(%rbp)
  152160:	48 8b 47 10          	mov    0x10(%rdi),%rax
  152164:	48 89 45 c8          	mov    %rax,-0x38(%rbp)
  152168:	48 8b 07             	mov    (%rdi),%rax
  15216b:	48 8b 4f 08          	mov    0x8(%rdi),%rcx
  15216f:	48 89 4d c0          	mov    %rcx,-0x40(%rbp)
  152173:	48 89 45 b8          	mov    %rax,-0x48(%rbp)
  152177:	48 8d 45 b8          	lea    -0x48(%rbp),%rax
  15217b:	48 89 45 e8          	mov    %rax,-0x18(%rbp)
  15217f:	48 89 55 f0          	mov    %rdx,-0x10(%rbp)
  152183:	c6 45 f8 00          	movb   $0x0,-0x8(%rbp)
  152187:	40 88 75 f9          	mov    %sil,-0x7(%rbp)
  15218b:	48 8d 7d e8          	lea    -0x18(%rbp),%rdi
  15218f:	ff 15 fb 25 00 00    	call   *0x25fb(%rip)        # 154790 <memset+0xf30>
  152195:	cc                   	int3
  152196:	cc                   	int3
  152197:	cc                   	int3
  152198:	cc                   	int3
  152199:	cc                   	int3
  15219a:	cc                   	int3
  15219b:	cc                   	int3
  15219c:	cc                   	int3
  15219d:	cc                   	int3
  15219e:	cc                   	int3
  15219f:	cc                   	int3

00000000001521a0 <_ZN4core9panicking14panic_nounwind17he3ea21695789ac19E>:
  1521a0:	55                   	push   %rbp
  1521a1:	48 89 e5             	mov    %rsp,%rbp
  1521a4:	48 83 ec 40          	sub    $0x40,%rsp
  1521a8:	48 89 7d f0          	mov    %rdi,-0x10(%rbp)
  1521ac:	48 89 75 f8          	mov    %rsi,-0x8(%rbp)
  1521b0:	48 8d 45 f0          	lea    -0x10(%rbp),%rax
  1521b4:	48 89 45 c0          	mov    %rax,-0x40(%rbp)
  1521b8:	48 c7 45 c8 01 00 00 	movq   $0x1,-0x38(%rbp)
  1521bf:	00 
  1521c0:	48 c7 45 e0 00 00 00 	movq   $0x0,-0x20(%rbp)
  1521c7:	00 
  1521c8:	48 c7 45 d0 08 00 00 	movq   $0x8,-0x30(%rbp)
  1521cf:	00 
  1521d0:	48 c7 45 d8 00 00 00 	movq   $0x0,-0x28(%rbp)
  1521d7:	00 
  1521d8:	48 8d 15 51 2e 00 00 	lea    0x2e51(%rip),%rdx        # 155030 <memset+0x17d0>
  1521df:	48 8d 7d c0          	lea    -0x40(%rbp),%rdi
  1521e3:	31 f6                	xor    %esi,%esi
  1521e5:	ff 15 dd 25 00 00    	call   *0x25dd(%rip)        # 1547c8 <memset+0xf68>
  1521eb:	cc                   	int3
  1521ec:	cc                   	int3
  1521ed:	cc                   	int3
  1521ee:	cc                   	int3
  1521ef:	cc                   	int3

00000000001521f0 <_ZN4core3fmt8builders10PadAdapter4wrap17h71657cb2e3a3a702E>:
  1521f0:	55                   	push   %rbp
  1521f1:	48 89 e5             	mov    %rsp,%rbp
  1521f4:	48 89 f8             	mov    %rdi,%rax
  1521f7:	48 8b 3e             	mov    (%rsi),%rdi
  1521fa:	4c 8b 46 08          	mov    0x8(%rsi),%r8
  1521fe:	48 89 3a             	mov    %rdi,(%rdx)
  152201:	4c 89 42 08          	mov    %r8,0x8(%rdx)
  152205:	48 89 4a 10          	mov    %rcx,0x10(%rdx)
  152209:	48 8b 4e 10          	mov    0x10(%rsi),%rcx
  15220d:	48 89 48 10          	mov    %rcx,0x10(%rax)
  152211:	48 89 10             	mov    %rdx,(%rax)
  152214:	48 8d 0d 2d 2e 00 00 	lea    0x2e2d(%rip),%rcx        # 155048 <memset+0x17e8>
  15221b:	48 89 48 08          	mov    %rcx,0x8(%rax)
  15221f:	5d                   	pop    %rbp
  152220:	c3                   	ret
  152221:	cc                   	int3
  152222:	cc                   	int3
  152223:	cc                   	int3
  152224:	cc                   	int3
  152225:	cc                   	int3
  152226:	cc                   	int3
  152227:	cc                   	int3
  152228:	cc                   	int3
  152229:	cc                   	int3
  15222a:	cc                   	int3
  15222b:	cc                   	int3
  15222c:	cc                   	int3
  15222d:	cc                   	int3
  15222e:	cc                   	int3
  15222f:	cc                   	int3

0000000000152230 <_ZN68_$LT$core..fmt..builders..PadAdapter$u20$as$u20$core..fmt..Write$GT$9write_str17hc03b100990bcb290E>:
  152230:	55                   	push   %rbp
  152231:	48 89 e5             	mov    %rsp,%rbp
  152234:	41 57                	push   %r15
  152236:	41 56                	push   %r14
  152238:	41 55                	push   %r13
  15223a:	41 54                	push   %r12
  15223c:	53                   	push   %rbx
  15223d:	48 83 ec 38          	sub    $0x38,%rsp
  152241:	48 89 75 d0          	mov    %rsi,-0x30(%rbp)
  152245:	48 bb 80 80 80 80 80 	movabs $0x8080808080808080,%rbx
  15224c:	80 80 80 
  15224f:	48 8b 47 10          	mov    0x10(%rdi),%rax
  152253:	48 89 45 b0          	mov    %rax,-0x50(%rbp)
  152257:	48 8b 07             	mov    (%rdi),%rax
  15225a:	48 89 45 b8          	mov    %rax,-0x48(%rbp)
  15225e:	48 8b 47 08          	mov    0x8(%rdi),%rax
  152262:	48 89 45 c0          	mov    %rax,-0x40(%rbp)
  152266:	45 31 f6             	xor    %r14d,%r14d
  152269:	45 31 ff             	xor    %r15d,%r15d
  15226c:	48 c7 45 a8 00 00 00 	movq   $0x0,-0x58(%rbp)
  152273:	00 
  152274:	48 89 55 c8          	mov    %rdx,-0x38(%rbp)
  152278:	eb 3e                	jmp    1522b8 <_ZN68_$LT$core..fmt..builders..PadAdapter$u20$as$u20$core..fmt..Write$GT$9write_str17hc03b100990bcb290E+0x88>
  15227a:	66 0f 1f 44 00 00    	nopw   0x0(%rax,%rax,1)
  152280:	41 80 7c 1b ff 0a    	cmpb   $0xa,-0x1(%r11,%rbx,1)
  152286:	0f 94 c0             	sete   %al
  152289:	4c 29 fb             	sub    %r15,%rbx
  15228c:	4d 01 df             	add    %r11,%r15
  15228f:	48 8b 4d b0          	mov    -0x50(%rbp),%rcx
  152293:	88 01                	mov    %al,(%rcx)
  152295:	48 8b 7d b8          	mov    -0x48(%rbp),%rdi
  152299:	4c 89 fe             	mov    %r15,%rsi
  15229c:	48 89 da             	mov    %rbx,%rdx
  15229f:	48 8b 45 c0          	mov    -0x40(%rbp),%rax
  1522a3:	ff 50 18             	call   *0x18(%rax)
  1522a6:	4d 89 ef             	mov    %r13,%r15
  1522a9:	84 c0                	test   %al,%al
  1522ab:	4c 89 e3             	mov    %r12,%rbx
  1522ae:	48 8b 55 c8          	mov    -0x38(%rbp),%rdx
  1522b2:	0f 85 ce 01 00 00    	jne    152486 <_ZN68_$LT$core..fmt..builders..PadAdapter$u20$as$u20$core..fmt..Write$GT$9write_str17hc03b100990bcb290E+0x256>
  1522b8:	f6 45 a8 01          	testb  $0x1,-0x58(%rbp)
  1522bc:	0f 85 c0 01 00 00    	jne    152482 <_ZN68_$LT$core..fmt..builders..PadAdapter$u20$as$u20$core..fmt..Write$GT$9write_str17hc03b100990bcb290E+0x252>
  1522c2:	4c 39 f2             	cmp    %r14,%rdx
  1522c5:	73 19                	jae    1522e0 <_ZN68_$LT$core..fmt..builders..PadAdapter$u20$as$u20$core..fmt..Write$GT$9write_str17hc03b100990bcb290E+0xb0>
  1522c7:	4d 89 f5             	mov    %r14,%r13
  1522ca:	4c 8b 5d d0          	mov    -0x30(%rbp),%r11
  1522ce:	e9 60 01 00 00       	jmp    152433 <_ZN68_$LT$core..fmt..builders..PadAdapter$u20$as$u20$core..fmt..Write$GT$9write_str17hc03b100990bcb290E+0x203>
  1522d3:	66 66 66 66 2e 0f 1f 	data16 data16 data16 cs nopw 0x0(%rax,%rax,1)
  1522da:	84 00 00 00 00 00 
  1522e0:	4c 8b 5d d0          	mov    -0x30(%rbp),%r11
  1522e4:	eb 16                	jmp    1522fc <_ZN68_$LT$core..fmt..builders..PadAdapter$u20$as$u20$core..fmt..Write$GT$9write_str17hc03b100990bcb290E+0xcc>
  1522e6:	66 2e 0f 1f 84 00 00 	cs nopw 0x0(%rax,%rax,1)
  1522ed:	00 00 00 
  1522f0:	4d 89 ee             	mov    %r13,%r14
  1522f3:	49 39 d5             	cmp    %rdx,%r13
  1522f6:	0f 87 37 01 00 00    	ja     152433 <_ZN68_$LT$core..fmt..builders..PadAdapter$u20$as$u20$core..fmt..Write$GT$9write_str17hc03b100990bcb290E+0x203>
  1522fc:	48 89 d1             	mov    %rdx,%rcx
  1522ff:	4c 29 f1             	sub    %r14,%rcx
  152302:	4b 8d 04 33          	lea    (%r11,%r14,1),%rax
  152306:	48 83 f9 0f          	cmp    $0xf,%rcx
  15230a:	77 34                	ja     152340 <_ZN68_$LT$core..fmt..builders..PadAdapter$u20$as$u20$core..fmt..Write$GT$9write_str17hc03b100990bcb290E+0x110>
  15230c:	4c 39 f2             	cmp    %r14,%rdx
  15230f:	0f 84 1b 01 00 00    	je     152430 <_ZN68_$LT$core..fmt..builders..PadAdapter$u20$as$u20$core..fmt..Write$GT$9write_str17hc03b100990bcb290E+0x200>
  152315:	31 ff                	xor    %edi,%edi
  152317:	66 0f 1f 84 00 00 00 	nopw   0x0(%rax,%rax,1)
  15231e:	00 00 
  152320:	80 3c 38 0a          	cmpb   $0xa,(%rax,%rdi,1)
  152324:	0f 84 d6 00 00 00    	je     152400 <_ZN68_$LT$core..fmt..builders..PadAdapter$u20$as$u20$core..fmt..Write$GT$9write_str17hc03b100990bcb290E+0x1d0>
  15232a:	48 ff c7             	inc    %rdi
  15232d:	48 39 f9             	cmp    %rdi,%rcx
  152330:	75 ee                	jne    152320 <_ZN68_$LT$core..fmt..builders..PadAdapter$u20$as$u20$core..fmt..Write$GT$9write_str17hc03b100990bcb290E+0xf0>
  152332:	e9 f9 00 00 00       	jmp    152430 <_ZN68_$LT$core..fmt..builders..PadAdapter$u20$as$u20$core..fmt..Write$GT$9write_str17hc03b100990bcb290E+0x200>
  152337:	66 0f 1f 84 00 00 00 	nopw   0x0(%rax,%rax,1)
  15233e:	00 00 
  152340:	48 8d 70 07          	lea    0x7(%rax),%rsi
  152344:	48 83 e6 f8          	and    $0xfffffffffffffff8,%rsi
  152348:	49 89 f4             	mov    %rsi,%r12
  15234b:	49 29 c4             	sub    %rax,%r12
  15234e:	49 bd 00 01 01 01 01 	movabs $0x101010101010100,%r13
  152355:	01 01 01 
  152358:	74 23                	je     15237d <_ZN68_$LT$core..fmt..builders..PadAdapter$u20$as$u20$core..fmt..Write$GT$9write_str17hc03b100990bcb290E+0x14d>
  15235a:	31 ff                	xor    %edi,%edi
  15235c:	0f 1f 40 00          	nopl   0x0(%rax)
  152360:	80 3c 38 0a          	cmpb   $0xa,(%rax,%rdi,1)
  152364:	0f 84 96 00 00 00    	je     152400 <_ZN68_$LT$core..fmt..builders..PadAdapter$u20$as$u20$core..fmt..Write$GT$9write_str17hc03b100990bcb290E+0x1d0>
  15236a:	48 ff c7             	inc    %rdi
  15236d:	49 39 fc             	cmp    %rdi,%r12
  152370:	75 ee                	jne    152360 <_ZN68_$LT$core..fmt..builders..PadAdapter$u20$as$u20$core..fmt..Write$GT$9write_str17hc03b100990bcb290E+0x130>
  152372:	48 8d 79 f0          	lea    -0x10(%rcx),%rdi
  152376:	49 39 fc             	cmp    %rdi,%r12
  152379:	76 06                	jbe    152381 <_ZN68_$LT$core..fmt..builders..PadAdapter$u20$as$u20$core..fmt..Write$GT$9write_str17hc03b100990bcb290E+0x151>
  15237b:	eb 5d                	jmp    1523da <_ZN68_$LT$core..fmt..builders..PadAdapter$u20$as$u20$core..fmt..Write$GT$9write_str17hc03b100990bcb290E+0x1aa>
  15237d:	48 8d 79 f0          	lea    -0x10(%rcx),%rdi
  152381:	ba 08 00 00 00       	mov    $0x8,%edx
  152386:	48 01 d6             	add    %rdx,%rsi
  152389:	48 ba 0a 0a 0a 0a 0a 	movabs $0xa0a0a0a0a0a0a0a,%rdx
  152390:	0a 0a 0a 
  152393:	66 66 66 66 2e 0f 1f 	data16 data16 data16 cs nopw 0x0(%rax,%rax,1)
  15239a:	84 00 00 00 00 00 
  1523a0:	4c 8b 46 f8          	mov    -0x8(%rsi),%r8
  1523a4:	4d 89 c1             	mov    %r8,%r9
  1523a7:	49 31 d1             	xor    %rdx,%r9
  1523aa:	4d 89 ea             	mov    %r13,%r10
  1523ad:	4d 29 ca             	sub    %r9,%r10
  1523b0:	4d 09 c2             	or     %r8,%r10
  1523b3:	4c 8b 06             	mov    (%rsi),%r8
  1523b6:	49 31 d0             	xor    %rdx,%r8
  1523b9:	4d 89 e9             	mov    %r13,%r9
  1523bc:	4d 29 c1             	sub    %r8,%r9
  1523bf:	4d 09 c1             	or     %r8,%r9
  1523c2:	49 21 da             	and    %rbx,%r10
  1523c5:	4d 21 ca             	and    %r9,%r10
  1523c8:	49 39 da             	cmp    %rbx,%r10
  1523cb:	75 0d                	jne    1523da <_ZN68_$LT$core..fmt..builders..PadAdapter$u20$as$u20$core..fmt..Write$GT$9write_str17hc03b100990bcb290E+0x1aa>
  1523cd:	49 83 c4 10          	add    $0x10,%r12
  1523d1:	48 83 c6 10          	add    $0x10,%rsi
  1523d5:	49 39 fc             	cmp    %rdi,%r12
  1523d8:	76 c6                	jbe    1523a0 <_ZN68_$LT$core..fmt..builders..PadAdapter$u20$as$u20$core..fmt..Write$GT$9write_str17hc03b100990bcb290E+0x170>
  1523da:	4c 89 e7             	mov    %r12,%rdi
  1523dd:	4c 39 e1             	cmp    %r12,%rcx
  1523e0:	48 8b 55 c8          	mov    -0x38(%rbp),%rdx
  1523e4:	74 4a                	je     152430 <_ZN68_$LT$core..fmt..builders..PadAdapter$u20$as$u20$core..fmt..Write$GT$9write_str17hc03b100990bcb290E+0x200>
  1523e6:	66 2e 0f 1f 84 00 00 	cs nopw 0x0(%rax,%rax,1)
  1523ed:	00 00 00 
  1523f0:	80 3c 38 0a          	cmpb   $0xa,(%rax,%rdi,1)
  1523f4:	74 0a                	je     152400 <_ZN68_$LT$core..fmt..builders..PadAdapter$u20$as$u20$core..fmt..Write$GT$9write_str17hc03b100990bcb290E+0x1d0>
  1523f6:	48 ff c7             	inc    %rdi
  1523f9:	48 39 f9             	cmp    %rdi,%rcx
  1523fc:	75 f2                	jne    1523f0 <_ZN68_$LT$core..fmt..builders..PadAdapter$u20$as$u20$core..fmt..Write$GT$9write_str17hc03b100990bcb290E+0x1c0>
  1523fe:	eb 30                	jmp    152430 <_ZN68_$LT$core..fmt..builders..PadAdapter$u20$as$u20$core..fmt..Write$GT$9write_str17hc03b100990bcb290E+0x200>
  152400:	4d 8d 2c 3e          	lea    (%r14,%rdi,1),%r13
  152404:	49 ff c5             	inc    %r13
  152407:	49 01 fe             	add    %rdi,%r14
  15240a:	49 39 d6             	cmp    %rdx,%r14
  15240d:	0f 83 dd fe ff ff    	jae    1522f0 <_ZN68_$LT$core..fmt..builders..PadAdapter$u20$as$u20$core..fmt..Write$GT$9write_str17hc03b100990bcb290E+0xc0>
  152413:	80 3c 07 0a          	cmpb   $0xa,(%rdi,%rax,1)
  152417:	0f 85 d3 fe ff ff    	jne    1522f0 <_ZN68_$LT$core..fmt..builders..PadAdapter$u20$as$u20$core..fmt..Write$GT$9write_str17hc03b100990bcb290E+0xc0>
  15241d:	49 89 dc             	mov    %rbx,%r12
  152420:	4d 89 ee             	mov    %r13,%r14
  152423:	4c 89 eb             	mov    %r13,%rbx
  152426:	eb 22                	jmp    15244a <_ZN68_$LT$core..fmt..builders..PadAdapter$u20$as$u20$core..fmt..Write$GT$9write_str17hc03b100990bcb290E+0x21a>
  152428:	0f 1f 84 00 00 00 00 	nopl   0x0(%rax,%rax,1)
  15242f:	00 
  152430:	49 89 d5             	mov    %rdx,%r13
  152433:	49 89 dc             	mov    %rbx,%r12
  152436:	b0 01                	mov    $0x1,%al
  152438:	48 89 45 a8          	mov    %rax,-0x58(%rbp)
  15243c:	4d 89 ee             	mov    %r13,%r14
  15243f:	4d 89 fd             	mov    %r15,%r13
  152442:	48 89 d3             	mov    %rdx,%rbx
  152445:	4c 39 fa             	cmp    %r15,%rdx
  152448:	74 38                	je     152482 <_ZN68_$LT$core..fmt..builders..PadAdapter$u20$as$u20$core..fmt..Write$GT$9write_str17hc03b100990bcb290E+0x252>
  15244a:	48 8b 45 b0          	mov    -0x50(%rbp),%rax
  15244e:	80 38 00             	cmpb   $0x0,(%rax)
  152451:	74 1f                	je     152472 <_ZN68_$LT$core..fmt..builders..PadAdapter$u20$as$u20$core..fmt..Write$GT$9write_str17hc03b100990bcb290E+0x242>
  152453:	ba 04 00 00 00       	mov    $0x4,%edx
  152458:	48 8b 7d b8          	mov    -0x48(%rbp),%rdi
  15245c:	48 8d 35 cc 1b 00 00 	lea    0x1bcc(%rip),%rsi        # 15402f <memset+0x7cf>
  152463:	48 8b 45 c0          	mov    -0x40(%rbp),%rax
  152467:	ff 50 18             	call   *0x18(%rax)
  15246a:	4c 8b 5d d0          	mov    -0x30(%rbp),%r11
  15246e:	84 c0                	test   %al,%al
  152470:	75 14                	jne    152486 <_ZN68_$LT$core..fmt..builders..PadAdapter$u20$as$u20$core..fmt..Write$GT$9write_str17hc03b100990bcb290E+0x256>
  152472:	4c 39 fb             	cmp    %r15,%rbx
  152475:	0f 85 05 fe ff ff    	jne    152280 <_ZN68_$LT$core..fmt..builders..PadAdapter$u20$as$u20$core..fmt..Write$GT$9write_str17hc03b100990bcb290E+0x50>
  15247b:	31 c0                	xor    %eax,%eax
  15247d:	e9 07 fe ff ff       	jmp    152289 <_ZN68_$LT$core..fmt..builders..PadAdapter$u20$as$u20$core..fmt..Write$GT$9write_str17hc03b100990bcb290E+0x59>
  152482:	31 c0                	xor    %eax,%eax
  152484:	eb 02                	jmp    152488 <_ZN68_$LT$core..fmt..builders..PadAdapter$u20$as$u20$core..fmt..Write$GT$9write_str17hc03b100990bcb290E+0x258>
  152486:	b0 01                	mov    $0x1,%al
  152488:	48 83 c4 38          	add    $0x38,%rsp
  15248c:	5b                   	pop    %rbx
  15248d:	41 5c                	pop    %r12
  15248f:	41 5d                	pop    %r13
  152491:	41 5e                	pop    %r14
  152493:	41 5f                	pop    %r15
  152495:	5d                   	pop    %rbp
  152496:	c3                   	ret
  152497:	cc                   	int3
  152498:	cc                   	int3
  152499:	cc                   	int3
  15249a:	cc                   	int3
  15249b:	cc                   	int3
  15249c:	cc                   	int3
  15249d:	cc                   	int3
  15249e:	cc                   	int3
  15249f:	cc                   	int3

00000000001524a0 <_ZN68_$LT$core..fmt..builders..PadAdapter$u20$as$u20$core..fmt..Write$GT$10write_char17hdcc73344207e84a5E>:
  1524a0:	55                   	push   %rbp
  1524a1:	48 89 e5             	mov    %rsp,%rbp
  1524a4:	41 57                	push   %r15
  1524a6:	41 56                	push   %r14
  1524a8:	41 54                	push   %r12
  1524aa:	53                   	push   %rbx
  1524ab:	4c 8b 77 10          	mov    0x10(%rdi),%r14
  1524af:	48 8b 1f             	mov    (%rdi),%rbx
  1524b2:	4c 8b 7f 08          	mov    0x8(%rdi),%r15
  1524b6:	41 80 3e 00          	cmpb   $0x0,(%r14)
  1524ba:	74 2b                	je     1524e7 <_ZN68_$LT$core..fmt..builders..PadAdapter$u20$as$u20$core..fmt..Write$GT$10write_char17hdcc73344207e84a5E+0x47>
  1524bc:	48 8d 05 6c 1b 00 00 	lea    0x1b6c(%rip),%rax        # 15402f <memset+0x7cf>
  1524c3:	ba 04 00 00 00       	mov    $0x4,%edx
  1524c8:	48 89 df             	mov    %rbx,%rdi
  1524cb:	41 89 f4             	mov    %esi,%r12d
  1524ce:	48 89 c6             	mov    %rax,%rsi
  1524d1:	41 ff 57 18          	call   *0x18(%r15)
  1524d5:	44 89 e6             	mov    %r12d,%esi
  1524d8:	84 c0                	test   %al,%al
  1524da:	74 0b                	je     1524e7 <_ZN68_$LT$core..fmt..builders..PadAdapter$u20$as$u20$core..fmt..Write$GT$10write_char17hdcc73344207e84a5E+0x47>
  1524dc:	b0 01                	mov    $0x1,%al
  1524de:	5b                   	pop    %rbx
  1524df:	41 5c                	pop    %r12
  1524e1:	41 5e                	pop    %r14
  1524e3:	41 5f                	pop    %r15
  1524e5:	5d                   	pop    %rbp
  1524e6:	c3                   	ret
  1524e7:	83 fe 0a             	cmp    $0xa,%esi
  1524ea:	41 0f 94 06          	sete   (%r14)
  1524ee:	49 8b 47 20          	mov    0x20(%r15),%rax
  1524f2:	48 89 df             	mov    %rbx,%rdi
  1524f5:	5b                   	pop    %rbx
  1524f6:	41 5c                	pop    %r12
  1524f8:	41 5e                	pop    %r14
  1524fa:	41 5f                	pop    %r15
  1524fc:	5d                   	pop    %rbp
  1524fd:	ff e0                	jmp    *%rax
  1524ff:	cc                   	int3

0000000000152500 <_ZN4core3fmt8builders11DebugStruct5field17h159f822551a85e1bE>:
  152500:	55                   	push   %rbp
  152501:	48 89 e5             	mov    %rsp,%rbp
  152504:	41 57                	push   %r15
  152506:	41 56                	push   %r14
  152508:	41 55                	push   %r13
  15250a:	41 54                	push   %r12
  15250c:	53                   	push   %rbx
  15250d:	48 83 ec 48          	sub    $0x48,%rsp
  152511:	48 89 fb             	mov    %rdi,%rbx
  152514:	41 b4 01             	mov    $0x1,%r12b
  152517:	80 7f 08 00          	cmpb   $0x0,0x8(%rdi)
  15251b:	74 1a                	je     152537 <_ZN4core3fmt8builders11DebugStruct5field17h159f822551a85e1bE+0x37>
  15251d:	44 88 63 08          	mov    %r12b,0x8(%rbx)
  152521:	c6 43 09 01          	movb   $0x1,0x9(%rbx)
  152525:	48 89 d8             	mov    %rbx,%rax
  152528:	48 83 c4 48          	add    $0x48,%rsp
  15252c:	5b                   	pop    %rbx
  15252d:	41 5c                	pop    %r12
  15252f:	41 5d                	pop    %r13
  152531:	41 5e                	pop    %r14
  152533:	41 5f                	pop    %r15
  152535:	5d                   	pop    %rbp
  152536:	c3                   	ret
  152537:	48 89 4d c0          	mov    %rcx,-0x40(%rbp)
  15253b:	4c 89 45 c8          	mov    %r8,-0x38(%rbp)
  15253f:	4c 8b 3b             	mov    (%rbx),%r15
  152542:	41 f6 47 12 80       	testb  $0x80,0x12(%r15)
  152547:	0f b6 43 09          	movzbl 0x9(%rbx),%eax
  15254b:	75 74                	jne    1525c1 <_ZN4core3fmt8builders11DebugStruct5field17h159f822551a85e1bE+0xc1>
  15254d:	49 89 f6             	mov    %rsi,%r14
  152550:	49 89 d5             	mov    %rdx,%r13
  152553:	0f b6 d0             	movzbl %al,%edx
  152556:	48 83 f2 03          	xor    $0x3,%rdx
  15255a:	48 8d 0d fd 20 00 00 	lea    0x20fd(%rip),%rcx        # 15465e <memset+0xdfe>
  152561:	48 8d 35 f3 20 00 00 	lea    0x20f3(%rip),%rsi        # 15465b <memset+0xdfb>
  152568:	84 c0                	test   %al,%al
  15256a:	48 0f 45 f1          	cmovne %rcx,%rsi
  15256e:	49 8b 3f             	mov    (%r15),%rdi
  152571:	49 8b 47 08          	mov    0x8(%r15),%rax
  152575:	ff 50 18             	call   *0x18(%rax)
  152578:	84 c0                	test   %al,%al
  15257a:	75 a1                	jne    15251d <_ZN4core3fmt8builders11DebugStruct5field17h159f822551a85e1bE+0x1d>
  15257c:	49 8b 3f             	mov    (%r15),%rdi
  15257f:	49 8b 47 08          	mov    0x8(%r15),%rax
  152583:	4c 89 f6             	mov    %r14,%rsi
  152586:	4c 89 ea             	mov    %r13,%rdx
  152589:	ff 50 18             	call   *0x18(%rax)
  15258c:	84 c0                	test   %al,%al
  15258e:	75 8d                	jne    15251d <_ZN4core3fmt8builders11DebugStruct5field17h159f822551a85e1bE+0x1d>
  152590:	49 8b 3f             	mov    (%r15),%rdi
  152593:	49 8b 47 08          	mov    0x8(%r15),%rax
  152597:	48 8d 35 bb 20 00 00 	lea    0x20bb(%rip),%rsi        # 154659 <memset+0xdf9>
  15259e:	ba 02 00 00 00       	mov    $0x2,%edx
  1525a3:	ff 50 18             	call   *0x18(%rax)
  1525a6:	84 c0                	test   %al,%al
  1525a8:	0f 85 6f ff ff ff    	jne    15251d <_ZN4core3fmt8builders11DebugStruct5field17h159f822551a85e1bE+0x1d>
  1525ae:	48 8b 7d c0          	mov    -0x40(%rbp),%rdi
  1525b2:	4c 89 fe             	mov    %r15,%rsi
  1525b5:	48 8b 45 c8          	mov    -0x38(%rbp),%rax
  1525b9:	ff 50 18             	call   *0x18(%rax)
  1525bc:	e9 c4 00 00 00       	jmp    152685 <_ZN4core3fmt8builders11DebugStruct5field17h159f822551a85e1bE+0x185>
  1525c1:	84 c0                	test   %al,%al
  1525c3:	75 30                	jne    1525f5 <_ZN4core3fmt8builders11DebugStruct5field17h159f822551a85e1bE+0xf5>
  1525c5:	49 8b 3f             	mov    (%r15),%rdi
  1525c8:	49 8b 4f 08          	mov    0x8(%r15),%rcx
  1525cc:	48 8d 05 8d 20 00 00 	lea    0x208d(%rip),%rax        # 154660 <memset+0xe00>
  1525d3:	49 89 d6             	mov    %rdx,%r14
  1525d6:	ba 03 00 00 00       	mov    $0x3,%edx
  1525db:	49 89 f4             	mov    %rsi,%r12
  1525de:	48 89 c6             	mov    %rax,%rsi
  1525e1:	ff 51 18             	call   *0x18(%rcx)
  1525e4:	4c 89 e6             	mov    %r12,%rsi
  1525e7:	4c 89 f2             	mov    %r14,%rdx
  1525ea:	41 b4 01             	mov    $0x1,%r12b
  1525ed:	84 c0                	test   %al,%al
  1525ef:	0f 85 28 ff ff ff    	jne    15251d <_ZN4core3fmt8builders11DebugStruct5field17h159f822551a85e1bE+0x1d>
  1525f5:	c6 45 d7 01          	movb   $0x1,-0x29(%rbp)
  1525f9:	49 8b 07             	mov    (%r15),%rax
  1525fc:	49 8b 4f 08          	mov    0x8(%r15),%rcx
  152600:	48 89 45 90          	mov    %rax,-0x70(%rbp)
  152604:	48 89 4d 98          	mov    %rcx,-0x68(%rbp)
  152608:	48 8d 45 d7          	lea    -0x29(%rbp),%rax
  15260c:	48 89 45 a0          	mov    %rax,-0x60(%rbp)
  152610:	49 8b 47 10          	mov    0x10(%r15),%rax
  152614:	48 89 45 b8          	mov    %rax,-0x48(%rbp)
  152618:	48 8d 7d 90          	lea    -0x70(%rbp),%rdi
  15261c:	48 89 7d a8          	mov    %rdi,-0x58(%rbp)
  152620:	48 8d 05 21 2a 00 00 	lea    0x2a21(%rip),%rax        # 155048 <memset+0x17e8>
  152627:	48 89 45 b0          	mov    %rax,-0x50(%rbp)
  15262b:	ff 15 9f 21 00 00    	call   *0x219f(%rip)        # 1547d0 <memset+0xf70>
  152631:	84 c0                	test   %al,%al
  152633:	0f 85 e4 fe ff ff    	jne    15251d <_ZN4core3fmt8builders11DebugStruct5field17h159f822551a85e1bE+0x1d>
  152639:	48 8d 35 19 20 00 00 	lea    0x2019(%rip),%rsi        # 154659 <memset+0xdf9>
  152640:	48 8d 7d 90          	lea    -0x70(%rbp),%rdi
  152644:	ba 02 00 00 00       	mov    $0x2,%edx
  152649:	ff 15 81 21 00 00    	call   *0x2181(%rip)        # 1547d0 <memset+0xf70>
  15264f:	84 c0                	test   %al,%al
  152651:	0f 85 c6 fe ff ff    	jne    15251d <_ZN4core3fmt8builders11DebugStruct5field17h159f822551a85e1bE+0x1d>
  152657:	48 8d 75 a8          	lea    -0x58(%rbp),%rsi
  15265b:	48 8b 7d c0          	mov    -0x40(%rbp),%rdi
  15265f:	48 8b 45 c8          	mov    -0x38(%rbp),%rax
  152663:	ff 50 18             	call   *0x18(%rax)
  152666:	84 c0                	test   %al,%al
  152668:	0f 85 af fe ff ff    	jne    15251d <_ZN4core3fmt8builders11DebugStruct5field17h159f822551a85e1bE+0x1d>
  15266e:	48 8b 7d a8          	mov    -0x58(%rbp),%rdi
  152672:	48 8b 45 b0          	mov    -0x50(%rbp),%rax
  152676:	48 8d 35 e6 1f 00 00 	lea    0x1fe6(%rip),%rsi        # 154663 <memset+0xe03>
  15267d:	ba 02 00 00 00       	mov    $0x2,%edx
  152682:	ff 50 18             	call   *0x18(%rax)
  152685:	41 89 c4             	mov    %eax,%r12d
  152688:	e9 90 fe ff ff       	jmp    15251d <_ZN4core3fmt8builders11DebugStruct5field17h159f822551a85e1bE+0x1d>
  15268d:	cc                   	int3
  15268e:	cc                   	int3
  15268f:	cc                   	int3

0000000000152690 <_ZN4core3fmt8builders11DebugStruct6finish17hfdafa0672db8f1abE>:
  152690:	0f b6 47 08          	movzbl 0x8(%rdi),%eax
  152694:	80 7f 09 00          	cmpb   $0x0,0x9(%rdi)
  152698:	74 4f                	je     1526e9 <_ZN4core3fmt8builders11DebugStruct6finish17hfdafa0672db8f1abE+0x59>
  15269a:	a8 01                	test   $0x1,%al
  15269c:	b0 01                	mov    $0x1,%al
  15269e:	75 46                	jne    1526e6 <_ZN4core3fmt8builders11DebugStruct6finish17hfdafa0672db8f1abE+0x56>
  1526a0:	55                   	push   %rbp
  1526a1:	48 89 e5             	mov    %rsp,%rbp
  1526a4:	53                   	push   %rbx
  1526a5:	50                   	push   %rax
  1526a6:	48 89 fb             	mov    %rdi,%rbx
  1526a9:	48 8b 07             	mov    (%rdi),%rax
  1526ac:	f6 40 12 80          	testb  $0x80,0x12(%rax)
  1526b0:	75 15                	jne    1526c7 <_ZN4core3fmt8builders11DebugStruct6finish17hfdafa0672db8f1abE+0x37>
  1526b2:	48 8b 38             	mov    (%rax),%rdi
  1526b5:	48 8b 40 08          	mov    0x8(%rax),%rax
  1526b9:	48 8d 35 a6 1f 00 00 	lea    0x1fa6(%rip),%rsi        # 154666 <memset+0xe06>
  1526c0:	ba 02 00 00 00       	mov    $0x2,%edx
  1526c5:	eb 13                	jmp    1526da <_ZN4core3fmt8builders11DebugStruct6finish17hfdafa0672db8f1abE+0x4a>
  1526c7:	48 8b 38             	mov    (%rax),%rdi
  1526ca:	48 8b 40 08          	mov    0x8(%rax),%rax
  1526ce:	48 8d 35 90 1f 00 00 	lea    0x1f90(%rip),%rsi        # 154665 <memset+0xe05>
  1526d5:	ba 01 00 00 00       	mov    $0x1,%edx
  1526da:	ff 50 18             	call   *0x18(%rax)
  1526dd:	48 89 df             	mov    %rbx,%rdi
  1526e0:	48 83 c4 08          	add    $0x8,%rsp
  1526e4:	5b                   	pop    %rbx
  1526e5:	5d                   	pop    %rbp
  1526e6:	88 47 08             	mov    %al,0x8(%rdi)
  1526e9:	24 01                	and    $0x1,%al
  1526eb:	c3                   	ret
  1526ec:	cc                   	int3
  1526ed:	cc                   	int3
  1526ee:	cc                   	int3
  1526ef:	cc                   	int3

00000000001526f0 <_ZN4core3fmt5Write9write_fmt17h3b8d6d44ea96b134E>:
  1526f0:	55                   	push   %rbp
  1526f1:	48 89 e5             	mov    %rsp,%rbp
  1526f4:	48 89 f2             	mov    %rsi,%rdx
  1526f7:	48 8d 35 4a 29 00 00 	lea    0x294a(%rip),%rsi        # 155048 <memset+0x17e8>
  1526fe:	5d                   	pop    %rbp
  1526ff:	ff 25 9b 20 00 00    	jmp    *0x209b(%rip)        # 1547a0 <memset+0xf40>
  152705:	cc                   	int3
  152706:	cc                   	int3
  152707:	cc                   	int3
  152708:	cc                   	int3
  152709:	cc                   	int3
  15270a:	cc                   	int3
  15270b:	cc                   	int3
  15270c:	cc                   	int3
  15270d:	cc                   	int3
  15270e:	cc                   	int3
  15270f:	cc                   	int3

0000000000152710 <_ZN4core3fmt5write17h00912665b556baf5E>:
  152710:	55                   	push   %rbp
  152711:	48 89 e5             	mov    %rsp,%rbp
  152714:	41 57                	push   %r15
  152716:	41 56                	push   %r14
  152718:	41 55                	push   %r13
  15271a:	41 54                	push   %r12
  15271c:	53                   	push   %rbx
  15271d:	48 83 ec 28          	sub    $0x28,%rsp
  152721:	b8 20 00 00 e0       	mov    $0xe0000020,%eax
  152726:	48 89 45 d0          	mov    %rax,-0x30(%rbp)
  15272a:	48 89 7d c0          	mov    %rdi,-0x40(%rbp)
  15272e:	48 89 75 c8          	mov    %rsi,-0x38(%rbp)
  152732:	4c 8b 62 20          	mov    0x20(%rdx),%r12
  152736:	4d 85 e4             	test   %r12,%r12
  152739:	48 89 55 b0          	mov    %rdx,-0x50(%rbp)
  15273d:	0f 84 08 01 00 00    	je     15284b <_ZN4core3fmt5write17h00912665b556baf5E+0x13b>
  152743:	48 8b 42 28          	mov    0x28(%rdx),%rax
  152747:	48 85 c0             	test   %rax,%rax
  15274a:	0f 84 77 01 00 00    	je     1528c7 <_ZN4core3fmt5write17h00912665b556baf5E+0x1b7>
  152750:	4c 8b 2a             	mov    (%rdx),%r13
  152753:	4c 8b 72 10          	mov    0x10(%rdx),%r14
  152757:	49 83 c5 08          	add    $0x8,%r13
  15275b:	48 c1 e0 04          	shl    $0x4,%rax
  15275f:	48 8d 04 40          	lea    (%rax,%rax,2),%rax
  152763:	48 89 45 b8          	mov    %rax,-0x48(%rbp)
  152767:	31 db                	xor    %ebx,%ebx
  152769:	45 31 ff             	xor    %r15d,%r15d
  15276c:	0f 1f 40 00          	nopl   0x0(%rax)
  152770:	49 8b 55 00          	mov    0x0(%r13),%rdx
  152774:	48 85 d2             	test   %rdx,%rdx
  152777:	74 17                	je     152790 <_ZN4core3fmt5write17h00912665b556baf5E+0x80>
  152779:	48 8b 7d c0          	mov    -0x40(%rbp),%rdi
  15277d:	48 8b 45 c8          	mov    -0x38(%rbp),%rax
  152781:	49 8b 75 f8          	mov    -0x8(%r13),%rsi
  152785:	ff 50 18             	call   *0x18(%rax)
  152788:	84 c0                	test   %al,%al
  15278a:	0f 85 33 01 00 00    	jne    1528c3 <_ZN4core3fmt5write17h00912665b556baf5E+0x1b3>
  152790:	41 0f b7 44 1c 10    	movzwl 0x10(%r12,%rbx,1),%eax
  152796:	85 c0                	test   %eax,%eax
  152798:	74 36                	je     1527d0 <_ZN4core3fmt5write17h00912665b556baf5E+0xc0>
  15279a:	83 f8 01             	cmp    $0x1,%eax
  15279d:	75 51                	jne    1527f0 <_ZN4core3fmt5write17h00912665b556baf5E+0xe0>
  15279f:	49 8b 44 1c 18       	mov    0x18(%r12,%rbx,1),%rax
  1527a4:	48 c1 e0 04          	shl    $0x4,%rax
  1527a8:	41 0f b7 44 06 08    	movzwl 0x8(%r14,%rax,1),%eax
  1527ae:	41 0f b7 0c 1c       	movzwl (%r12,%rbx,1),%ecx
  1527b3:	83 f9 02             	cmp    $0x2,%ecx
  1527b6:	74 28                	je     1527e0 <_ZN4core3fmt5write17h00912665b556baf5E+0xd0>
  1527b8:	83 f9 01             	cmp    $0x1,%ecx
  1527bb:	75 43                	jne    152800 <_ZN4core3fmt5write17h00912665b556baf5E+0xf0>
  1527bd:	49 8b 4c 1c 08       	mov    0x8(%r12,%rbx,1),%rcx
  1527c2:	48 c1 e1 04          	shl    $0x4,%rcx
  1527c6:	41 0f b7 4c 0e 08    	movzwl 0x8(%r14,%rcx,1),%ecx
  1527cc:	eb 38                	jmp    152806 <_ZN4core3fmt5write17h00912665b556baf5E+0xf6>
  1527ce:	66 90                	xchg   %ax,%ax
  1527d0:	41 0f b7 44 1c 12    	movzwl 0x12(%r12,%rbx,1),%eax
  1527d6:	41 0f b7 0c 1c       	movzwl (%r12,%rbx,1),%ecx
  1527db:	83 f9 02             	cmp    $0x2,%ecx
  1527de:	75 d8                	jne    1527b8 <_ZN4core3fmt5write17h00912665b556baf5E+0xa8>
  1527e0:	31 c9                	xor    %ecx,%ecx
  1527e2:	eb 22                	jmp    152806 <_ZN4core3fmt5write17h00912665b556baf5E+0xf6>
  1527e4:	66 66 66 2e 0f 1f 84 	data16 data16 cs nopw 0x0(%rax,%rax,1)
  1527eb:	00 00 00 00 00 
  1527f0:	31 c0                	xor    %eax,%eax
  1527f2:	41 0f b7 0c 1c       	movzwl (%r12,%rbx,1),%ecx
  1527f7:	83 f9 02             	cmp    $0x2,%ecx
  1527fa:	75 bc                	jne    1527b8 <_ZN4core3fmt5write17h00912665b556baf5E+0xa8>
  1527fc:	eb e2                	jmp    1527e0 <_ZN4core3fmt5write17h00912665b556baf5E+0xd0>
  1527fe:	66 90                	xchg   %ax,%ax
  152800:	41 0f b7 4c 1c 02    	movzwl 0x2(%r12,%rbx,1),%ecx
  152806:	41 8b 54 1c 28       	mov    0x28(%r12,%rbx,1),%edx
  15280b:	4d 8b 44 1c 20       	mov    0x20(%r12,%rbx,1),%r8
  152810:	49 c1 e0 04          	shl    $0x4,%r8
  152814:	89 55 d0             	mov    %edx,-0x30(%rbp)
  152817:	66 89 45 d4          	mov    %ax,-0x2c(%rbp)
  15281b:	66 89 4d d6          	mov    %cx,-0x2a(%rbp)
  15281f:	4b 8b 3c 06          	mov    (%r14,%r8,1),%rdi
  152823:	48 8d 75 c0          	lea    -0x40(%rbp),%rsi
  152827:	43 ff 54 06 08       	call   *0x8(%r14,%r8,1)
  15282c:	84 c0                	test   %al,%al
  15282e:	0f 85 8f 00 00 00    	jne    1528c3 <_ZN4core3fmt5write17h00912665b556baf5E+0x1b3>
  152834:	49 83 c5 10          	add    $0x10,%r13
  152838:	48 83 c3 30          	add    $0x30,%rbx
  15283c:	49 ff c7             	inc    %r15
  15283f:	48 39 5d b8          	cmp    %rbx,-0x48(%rbp)
  152843:	0f 85 27 ff ff ff    	jne    152770 <_ZN4core3fmt5write17h00912665b556baf5E+0x60>
  152849:	eb 6c                	jmp    1528b7 <_ZN4core3fmt5write17h00912665b556baf5E+0x1a7>
  15284b:	48 8b 5a 18          	mov    0x18(%rdx),%rbx
  15284f:	48 85 db             	test   %rbx,%rbx
  152852:	0f 84 7e 00 00 00    	je     1528d6 <_ZN4core3fmt5write17h00912665b556baf5E+0x1c6>
  152858:	48 8b 42 10          	mov    0x10(%rdx),%rax
  15285c:	48 c1 e3 04          	shl    $0x4,%rbx
  152860:	48 89 45 b8          	mov    %rax,-0x48(%rbp)
  152864:	48 01 c3             	add    %rax,%rbx
  152867:	4c 8b 2a             	mov    (%rdx),%r13
  15286a:	45 31 f6             	xor    %r14d,%r14d
  15286d:	45 31 ff             	xor    %r15d,%r15d
  152870:	4b 8b 54 35 08       	mov    0x8(%r13,%r14,1),%rdx
  152875:	48 85 d2             	test   %rdx,%rdx
  152878:	74 14                	je     15288e <_ZN4core3fmt5write17h00912665b556baf5E+0x17e>
  15287a:	48 8b 7d c0          	mov    -0x40(%rbp),%rdi
  15287e:	48 8b 45 c8          	mov    -0x38(%rbp),%rax
  152882:	4b 8b 74 35 00       	mov    0x0(%r13,%r14,1),%rsi
  152887:	ff 50 18             	call   *0x18(%rax)
  15288a:	84 c0                	test   %al,%al
  15288c:	75 35                	jne    1528c3 <_ZN4core3fmt5write17h00912665b556baf5E+0x1b3>
  15288e:	48 8b 45 b8          	mov    -0x48(%rbp),%rax
  152892:	4e 8d 24 30          	lea    (%rax,%r14,1),%r12
  152896:	49 8b 3c 24          	mov    (%r12),%rdi
  15289a:	48 8d 75 c0          	lea    -0x40(%rbp),%rsi
  15289e:	41 ff 54 24 08       	call   *0x8(%r12)
  1528a3:	84 c0                	test   %al,%al
  1528a5:	75 1c                	jne    1528c3 <_ZN4core3fmt5write17h00912665b556baf5E+0x1b3>
  1528a7:	49 83 c6 10          	add    $0x10,%r14
  1528ab:	49 83 c4 10          	add    $0x10,%r12
  1528af:	49 ff c7             	inc    %r15
  1528b2:	49 39 dc             	cmp    %rbx,%r12
  1528b5:	75 b9                	jne    152870 <_ZN4core3fmt5write17h00912665b556baf5E+0x160>
  1528b7:	48 8b 45 b0          	mov    -0x50(%rbp),%rax
  1528bb:	4c 3b 78 08          	cmp    0x8(%rax),%r15
  1528bf:	73 45                	jae    152906 <_ZN4core3fmt5write17h00912665b556baf5E+0x1f6>
  1528c1:	eb 20                	jmp    1528e3 <_ZN4core3fmt5write17h00912665b556baf5E+0x1d3>
  1528c3:	b0 01                	mov    $0x1,%al
  1528c5:	eb 41                	jmp    152908 <_ZN4core3fmt5write17h00912665b556baf5E+0x1f8>
  1528c7:	45 31 ff             	xor    %r15d,%r15d
  1528ca:	48 8b 45 b0          	mov    -0x50(%rbp),%rax
  1528ce:	4c 3b 78 08          	cmp    0x8(%rax),%r15
  1528d2:	73 32                	jae    152906 <_ZN4core3fmt5write17h00912665b556baf5E+0x1f6>
  1528d4:	eb 0d                	jmp    1528e3 <_ZN4core3fmt5write17h00912665b556baf5E+0x1d3>
  1528d6:	45 31 ff             	xor    %r15d,%r15d
  1528d9:	48 8b 45 b0          	mov    -0x50(%rbp),%rax
  1528dd:	4c 3b 78 08          	cmp    0x8(%rax),%r15
  1528e1:	73 23                	jae    152906 <_ZN4core3fmt5write17h00912665b556baf5E+0x1f6>
  1528e3:	48 8b 00             	mov    (%rax),%rax
  1528e6:	49 c1 e7 04          	shl    $0x4,%r15
  1528ea:	48 8b 7d c0          	mov    -0x40(%rbp),%rdi
  1528ee:	48 8b 4d c8          	mov    -0x38(%rbp),%rcx
  1528f2:	4a 8b 34 38          	mov    (%rax,%r15,1),%rsi
  1528f6:	4a 8b 54 38 08       	mov    0x8(%rax,%r15,1),%rdx
  1528fb:	ff 51 18             	call   *0x18(%rcx)
  1528fe:	89 c1                	mov    %eax,%ecx
  152900:	b0 01                	mov    $0x1,%al
  152902:	84 c9                	test   %cl,%cl
  152904:	75 02                	jne    152908 <_ZN4core3fmt5write17h00912665b556baf5E+0x1f8>
  152906:	31 c0                	xor    %eax,%eax
  152908:	48 83 c4 28          	add    $0x28,%rsp
  15290c:	5b                   	pop    %rbx
  15290d:	41 5c                	pop    %r12
  15290f:	41 5d                	pop    %r13
  152911:	41 5e                	pop    %r14
  152913:	41 5f                	pop    %r15
  152915:	5d                   	pop    %rbp
  152916:	c3                   	ret
  152917:	cc                   	int3
  152918:	cc                   	int3
  152919:	cc                   	int3
  15291a:	cc                   	int3
  15291b:	cc                   	int3
  15291c:	cc                   	int3
  15291d:	cc                   	int3
  15291e:	cc                   	int3
  15291f:	cc                   	int3

0000000000152920 <_ZN4core3fmt9Formatter12pad_integral17h2ef0297a466f3385E>:
  152920:	55                   	push   %rbp
  152921:	48 89 e5             	mov    %rsp,%rbp
  152924:	41 57                	push   %r15
  152926:	41 56                	push   %r14
  152928:	41 55                	push   %r13
  15292a:	41 54                	push   %r12
  15292c:	53                   	push   %rbx
  15292d:	48 83 ec 48          	sub    $0x48,%rsp
  152931:	4c 89 45 b8          	mov    %r8,-0x48(%rbp)
  152935:	49 89 d6             	mov    %rdx,%r14
  152938:	49 89 fc             	mov    %rdi,%r12
  15293b:	85 f6                	test   %esi,%esi
  15293d:	74 5e                	je     15299d <_ZN4core3fmt9Formatter12pad_integral17h2ef0297a466f3385E+0x7d>
  15293f:	45 8b 7c 24 10       	mov    0x10(%r12),%r15d
  152944:	44 89 fa             	mov    %r15d,%edx
  152947:	81 e2 00 00 20 00    	and    $0x200000,%edx
  15294d:	b8 00 00 11 00       	mov    $0x110000,%eax
  152952:	be 2b 00 00 00       	mov    $0x2b,%esi
  152957:	0f 44 f0             	cmove  %eax,%esi
  15295a:	89 75 d4             	mov    %esi,-0x2c(%rbp)
  15295d:	c1 ea 15             	shr    $0x15,%edx
  152960:	4c 01 ca             	add    %r9,%rdx
  152963:	41 f7 c7 00 00 80 00 	test   $0x800000,%r15d
  15296a:	74 4a                	je     1529b6 <_ZN4core3fmt9Formatter12pad_integral17h2ef0297a466f3385E+0x96>
  15296c:	48 89 55 c8          	mov    %rdx,-0x38(%rbp)
  152970:	48 83 f9 20          	cmp    $0x20,%rcx
  152974:	0f 83 97 00 00 00    	jae    152a11 <_ZN4core3fmt9Formatter12pad_integral17h2ef0297a466f3385E+0xf1>
  15297a:	48 85 c9             	test   %rcx,%rcx
  15297d:	0f 84 ab 00 00 00    	je     152a2e <_ZN4core3fmt9Formatter12pad_integral17h2ef0297a466f3385E+0x10e>
  152983:	41 89 ca             	mov    %ecx,%r10d
  152986:	41 83 e2 03          	and    $0x3,%r10d
  15298a:	48 83 f9 04          	cmp    $0x4,%rcx
  15298e:	0f 83 9e 00 00 00    	jae    152a32 <_ZN4core3fmt9Formatter12pad_integral17h2ef0297a466f3385E+0x112>
  152994:	31 c0                	xor    %eax,%eax
  152996:	31 d2                	xor    %edx,%edx
  152998:	e9 e6 00 00 00       	jmp    152a83 <_ZN4core3fmt9Formatter12pad_integral17h2ef0297a466f3385E+0x163>
  15299d:	49 8d 51 01          	lea    0x1(%r9),%rdx
  1529a1:	45 8b 7c 24 10       	mov    0x10(%r12),%r15d
  1529a6:	c7 45 d4 2d 00 00 00 	movl   $0x2d,-0x2c(%rbp)
  1529ad:	41 f7 c7 00 00 80 00 	test   $0x800000,%r15d
  1529b4:	75 b6                	jne    15296c <_ZN4core3fmt9Formatter12pad_integral17h2ef0297a466f3385E+0x4c>
  1529b6:	45 31 f6             	xor    %r14d,%r14d
  1529b9:	45 0f b7 6c 24 14    	movzwl 0x14(%r12),%r13d
  1529bf:	4c 39 ea             	cmp    %r13,%rdx
  1529c2:	0f 82 f3 00 00 00    	jb     152abb <_ZN4core3fmt9Formatter12pad_integral17h2ef0297a466f3385E+0x19b>
  1529c8:	4d 89 cd             	mov    %r9,%r13
  1529cb:	49 89 c8             	mov    %rcx,%r8
  1529ce:	49 8b 1c 24          	mov    (%r12),%rbx
  1529d2:	4d 8b 7c 24 08       	mov    0x8(%r12),%r15
  1529d7:	48 89 df             	mov    %rbx,%rdi
  1529da:	4c 89 fe             	mov    %r15,%rsi
  1529dd:	8b 55 d4             	mov    -0x2c(%rbp),%edx
  1529e0:	4c 89 f1             	mov    %r14,%rcx
  1529e3:	e8 78 02 00 00       	call   152c60 <_ZN4core3fmt9Formatter12pad_integral12write_prefix17hf28050afda7653d6E>
  1529e8:	41 b6 01             	mov    $0x1,%r14b
  1529eb:	84 c0                	test   %al,%al
  1529ed:	0f 85 58 02 00 00    	jne    152c4b <_ZN4core3fmt9Formatter12pad_integral17h2ef0297a466f3385E+0x32b>
  1529f3:	49 8b 47 18          	mov    0x18(%r15),%rax
  1529f7:	48 89 df             	mov    %rbx,%rdi
  1529fa:	48 8b 75 b8          	mov    -0x48(%rbp),%rsi
  1529fe:	4c 89 ea             	mov    %r13,%rdx
  152a01:	48 83 c4 48          	add    $0x48,%rsp
  152a05:	5b                   	pop    %rbx
  152a06:	41 5c                	pop    %r12
  152a08:	41 5d                	pop    %r13
  152a0a:	41 5e                	pop    %r14
  152a0c:	41 5f                	pop    %r15
  152a0e:	5d                   	pop    %rbp
  152a0f:	ff e0                	jmp    *%rax
  152a11:	4c 89 f7             	mov    %r14,%rdi
  152a14:	48 89 ce             	mov    %rcx,%rsi
  152a17:	49 89 cd             	mov    %rcx,%r13
  152a1a:	4c 89 cb             	mov    %r9,%rbx
  152a1d:	ff 15 9d 1d 00 00    	call   *0x1d9d(%rip)        # 1547c0 <memset+0xf60>
  152a23:	49 89 d9             	mov    %rbx,%r9
  152a26:	4c 89 e9             	mov    %r13,%rcx
  152a29:	e9 77 00 00 00       	jmp    152aa5 <_ZN4core3fmt9Formatter12pad_integral17h2ef0297a466f3385E+0x185>
  152a2e:	31 c0                	xor    %eax,%eax
  152a30:	eb 73                	jmp    152aa5 <_ZN4core3fmt9Formatter12pad_integral17h2ef0297a466f3385E+0x185>
  152a32:	89 ce                	mov    %ecx,%esi
  152a34:	83 e6 1c             	and    $0x1c,%esi
  152a37:	31 c0                	xor    %eax,%eax
  152a39:	31 d2                	xor    %edx,%edx
  152a3b:	0f 1f 44 00 00       	nopl   0x0(%rax,%rax,1)
  152a40:	31 ff                	xor    %edi,%edi
  152a42:	41 80 3c 16 c0       	cmpb   $0xc0,(%r14,%rdx,1)
  152a47:	40 0f 9d c7          	setge  %dil
  152a4b:	48 01 c7             	add    %rax,%rdi
  152a4e:	31 c0                	xor    %eax,%eax
  152a50:	41 80 7c 16 01 c0    	cmpb   $0xc0,0x1(%r14,%rdx,1)
  152a56:	0f 9d c0             	setge  %al
  152a59:	45 31 c0             	xor    %r8d,%r8d
  152a5c:	41 80 7c 16 02 c0    	cmpb   $0xc0,0x2(%r14,%rdx,1)
  152a62:	41 0f 9d c0          	setge  %r8b
  152a66:	49 01 c0             	add    %rax,%r8
  152a69:	49 01 f8             	add    %rdi,%r8
  152a6c:	31 c0                	xor    %eax,%eax
  152a6e:	41 80 7c 16 03 c0    	cmpb   $0xc0,0x3(%r14,%rdx,1)
  152a74:	0f 9d c0             	setge  %al
  152a77:	4c 01 c0             	add    %r8,%rax
  152a7a:	48 83 c2 04          	add    $0x4,%rdx
  152a7e:	48 39 d6             	cmp    %rdx,%rsi
  152a81:	75 bd                	jne    152a40 <_ZN4core3fmt9Formatter12pad_integral17h2ef0297a466f3385E+0x120>
  152a83:	4d 85 d2             	test   %r10,%r10
  152a86:	74 1d                	je     152aa5 <_ZN4core3fmt9Formatter12pad_integral17h2ef0297a466f3385E+0x185>
  152a88:	4c 01 f2             	add    %r14,%rdx
  152a8b:	31 f6                	xor    %esi,%esi
  152a8d:	0f 1f 00             	nopl   (%rax)
  152a90:	31 ff                	xor    %edi,%edi
  152a92:	80 3c 32 c0          	cmpb   $0xc0,(%rdx,%rsi,1)
  152a96:	40 0f 9d c7          	setge  %dil
  152a9a:	48 01 f8             	add    %rdi,%rax
  152a9d:	48 ff c6             	inc    %rsi
  152aa0:	49 39 f2             	cmp    %rsi,%r10
  152aa3:	75 eb                	jne    152a90 <_ZN4core3fmt9Formatter12pad_integral17h2ef0297a466f3385E+0x170>
  152aa5:	48 8b 55 c8          	mov    -0x38(%rbp),%rdx
  152aa9:	48 01 c2             	add    %rax,%rdx
  152aac:	45 0f b7 6c 24 14    	movzwl 0x14(%r12),%r13d
  152ab2:	4c 39 ea             	cmp    %r13,%rdx
  152ab5:	0f 83 0d ff ff ff    	jae    1529c8 <_ZN4core3fmt9Formatter12pad_integral17h2ef0297a466f3385E+0xa8>
  152abb:	41 f7 c7 00 00 00 01 	test   $0x1000000,%r15d
  152ac2:	4c 89 4d b0          	mov    %r9,-0x50(%rbp)
  152ac6:	48 89 55 c8          	mov    %rdx,-0x38(%rbp)
  152aca:	75 2c                	jne    152af8 <_ZN4core3fmt9Formatter12pad_integral17h2ef0297a466f3385E+0x1d8>
  152acc:	44 89 ee             	mov    %r13d,%esi
  152acf:	29 d6                	sub    %edx,%esi
  152ad1:	44 89 f8             	mov    %r15d,%eax
  152ad4:	c1 e8 1d             	shr    $0x1d,%eax
  152ad7:	83 e0 03             	and    $0x3,%eax
  152ada:	48 8d 15 df 1a 00 00 	lea    0x1adf(%rip),%rdx        # 1545c0 <memset+0xd60>
  152ae1:	48 63 04 82          	movslq (%rdx,%rax,4),%rax
  152ae5:	48 01 d0             	add    %rdx,%rax
  152ae8:	48 89 4d 98          	mov    %rcx,-0x68(%rbp)
  152aec:	89 75 d0             	mov    %esi,-0x30(%rbp)
  152aef:	ff e0                	jmp    *%rax
  152af1:	89 f0                	mov    %esi,%eax
  152af3:	e9 92 00 00 00       	jmp    152b8a <_ZN4core3fmt9Formatter12pad_integral17h2ef0297a466f3385E+0x26a>
  152af8:	49 8b 44 24 10       	mov    0x10(%r12),%rax
  152afd:	48 89 45 c0          	mov    %rax,-0x40(%rbp)
  152b01:	25 00 00 e0 9f       	and    $0x9fe00000,%eax
  152b06:	0d 30 00 00 20       	or     $0x20000030,%eax
  152b0b:	41 89 44 24 10       	mov    %eax,0x10(%r12)
  152b10:	4d 8b 3c 24          	mov    (%r12),%r15
  152b14:	49 89 c8             	mov    %rcx,%r8
  152b17:	49 8b 5c 24 08       	mov    0x8(%r12),%rbx
  152b1c:	4c 89 ff             	mov    %r15,%rdi
  152b1f:	48 89 de             	mov    %rbx,%rsi
  152b22:	8b 55 d4             	mov    -0x2c(%rbp),%edx
  152b25:	4c 89 f1             	mov    %r14,%rcx
  152b28:	e8 33 01 00 00       	call   152c60 <_ZN4core3fmt9Formatter12pad_integral12write_prefix17hf28050afda7653d6E>
  152b2d:	41 b6 01             	mov    $0x1,%r14b
  152b30:	84 c0                	test   %al,%al
  152b32:	0f 85 13 01 00 00    	jne    152c4b <_ZN4core3fmt9Formatter12pad_integral17h2ef0297a466f3385E+0x32b>
  152b38:	44 2b 6d c8          	sub    -0x38(%rbp),%r13d
  152b3c:	41 ff c5             	inc    %r13d
  152b3f:	90                   	nop
  152b40:	66 41 ff cd          	dec    %r13w
  152b44:	74 14                	je     152b5a <_ZN4core3fmt9Formatter12pad_integral17h2ef0297a466f3385E+0x23a>
  152b46:	4c 89 ff             	mov    %r15,%rdi
  152b49:	be 30 00 00 00       	mov    $0x30,%esi
  152b4e:	ff 53 20             	call   *0x20(%rbx)
  152b51:	84 c0                	test   %al,%al
  152b53:	74 eb                	je     152b40 <_ZN4core3fmt9Formatter12pad_integral17h2ef0297a466f3385E+0x220>
  152b55:	e9 f1 00 00 00       	jmp    152c4b <_ZN4core3fmt9Formatter12pad_integral17h2ef0297a466f3385E+0x32b>
  152b5a:	4c 89 ff             	mov    %r15,%rdi
  152b5d:	48 8b 75 b8          	mov    -0x48(%rbp),%rsi
  152b61:	48 8b 55 b0          	mov    -0x50(%rbp),%rdx
  152b65:	ff 53 18             	call   *0x18(%rbx)
  152b68:	84 c0                	test   %al,%al
  152b6a:	0f 85 db 00 00 00    	jne    152c4b <_ZN4core3fmt9Formatter12pad_integral17h2ef0297a466f3385E+0x32b>
  152b70:	48 8b 45 c0          	mov    -0x40(%rbp),%rax
  152b74:	49 89 44 24 10       	mov    %rax,0x10(%r12)
  152b79:	45 31 f6             	xor    %r14d,%r14d
  152b7c:	e9 ca 00 00 00       	jmp    152c4b <_ZN4core3fmt9Formatter12pad_integral17h2ef0297a466f3385E+0x32b>
  152b81:	31 c0                	xor    %eax,%eax
  152b83:	eb 05                	jmp    152b8a <_ZN4core3fmt9Formatter12pad_integral17h2ef0297a466f3385E+0x26a>
  152b85:	0f b7 c6             	movzwl %si,%eax
  152b88:	d1 e8                	shr    $1,%eax
  152b8a:	41 81 e7 ff ff 1f 00 	and    $0x1fffff,%r15d
  152b91:	44 89 7d c0          	mov    %r15d,-0x40(%rbp)
  152b95:	4c 89 e1             	mov    %r12,%rcx
  152b98:	4d 8b 24 24          	mov    (%r12),%r12
  152b9c:	48 8b 59 08          	mov    0x8(%rcx),%rbx
  152ba0:	48 89 45 a0          	mov    %rax,-0x60(%rbp)
  152ba4:	44 8d 78 01          	lea    0x1(%rax),%r15d
  152ba8:	0f 1f 84 00 00 00 00 	nopl   0x0(%rax,%rax,1)
  152baf:	00 
  152bb0:	66 41 ff cf          	dec    %r15w
  152bb4:	74 15                	je     152bcb <_ZN4core3fmt9Formatter12pad_integral17h2ef0297a466f3385E+0x2ab>
  152bb6:	4c 89 e7             	mov    %r12,%rdi
  152bb9:	8b 75 c0             	mov    -0x40(%rbp),%esi
  152bbc:	ff 53 20             	call   *0x20(%rbx)
  152bbf:	84 c0                	test   %al,%al
  152bc1:	74 ed                	je     152bb0 <_ZN4core3fmt9Formatter12pad_integral17h2ef0297a466f3385E+0x290>
  152bc3:	41 b6 01             	mov    $0x1,%r14b
  152bc6:	e9 80 00 00 00       	jmp    152c4b <_ZN4core3fmt9Formatter12pad_integral17h2ef0297a466f3385E+0x32b>
  152bcb:	4d 89 e7             	mov    %r12,%r15
  152bce:	4c 89 e7             	mov    %r12,%rdi
  152bd1:	48 89 de             	mov    %rbx,%rsi
  152bd4:	48 89 5d a8          	mov    %rbx,-0x58(%rbp)
  152bd8:	8b 55 d4             	mov    -0x2c(%rbp),%edx
  152bdb:	4c 89 f1             	mov    %r14,%rcx
  152bde:	4c 8b 45 98          	mov    -0x68(%rbp),%r8
  152be2:	e8 79 00 00 00       	call   152c60 <_ZN4core3fmt9Formatter12pad_integral12write_prefix17hf28050afda7653d6E>
  152be7:	41 b6 01             	mov    $0x1,%r14b
  152bea:	84 c0                	test   %al,%al
  152bec:	75 5d                	jne    152c4b <_ZN4core3fmt9Formatter12pad_integral17h2ef0297a466f3385E+0x32b>
  152bee:	4c 89 ff             	mov    %r15,%rdi
  152bf1:	48 8b 75 b8          	mov    -0x48(%rbp),%rsi
  152bf5:	48 8b 55 b0          	mov    -0x50(%rbp),%rdx
  152bf9:	48 8b 45 a8          	mov    -0x58(%rbp),%rax
  152bfd:	ff 50 18             	call   *0x18(%rax)
  152c00:	84 c0                	test   %al,%al
  152c02:	75 47                	jne    152c4b <_ZN4core3fmt9Formatter12pad_integral17h2ef0297a466f3385E+0x32b>
  152c04:	4c 8b 7d a0          	mov    -0x60(%rbp),%r15
  152c08:	44 29 7d d0          	sub    %r15d,-0x30(%rbp)
  152c0c:	44 03 7d c8          	add    -0x38(%rbp),%r15d
  152c10:	45 29 ef             	sub    %r13d,%r15d
  152c13:	66 41 be ff ff       	mov    $0xffff,%r14w
  152c18:	44 8b 6d c0          	mov    -0x40(%rbp),%r13d
  152c1c:	0f 1f 40 00          	nopl   0x0(%rax)
  152c20:	43 8d 04 37          	lea    (%r15,%r14,1),%eax
  152c24:	66 83 f8 ff          	cmp    $0xffff,%ax
  152c28:	74 12                	je     152c3c <_ZN4core3fmt9Formatter12pad_integral17h2ef0297a466f3385E+0x31c>
  152c2a:	4c 89 e7             	mov    %r12,%rdi
  152c2d:	44 89 ee             	mov    %r13d,%esi
  152c30:	ff 53 20             	call   *0x20(%rbx)
  152c33:	41 ff c6             	inc    %r14d
  152c36:	84 c0                	test   %al,%al
  152c38:	74 e6                	je     152c20 <_ZN4core3fmt9Formatter12pad_integral17h2ef0297a466f3385E+0x300>
  152c3a:	eb 06                	jmp    152c42 <_ZN4core3fmt9Formatter12pad_integral17h2ef0297a466f3385E+0x322>
  152c3c:	8b 45 d0             	mov    -0x30(%rbp),%eax
  152c3f:	41 89 c6             	mov    %eax,%r14d
  152c42:	66 44 3b 75 d0       	cmp    -0x30(%rbp),%r14w
  152c47:	41 0f 92 c6          	setb   %r14b
  152c4b:	44 89 f0             	mov    %r14d,%eax
  152c4e:	48 83 c4 48          	add    $0x48,%rsp
  152c52:	5b                   	pop    %rbx
  152c53:	41 5c                	pop    %r12
  152c55:	41 5d                	pop    %r13
  152c57:	41 5e                	pop    %r14
  152c59:	41 5f                	pop    %r15
  152c5b:	5d                   	pop    %rbp
  152c5c:	c3                   	ret
  152c5d:	cc                   	int3
  152c5e:	cc                   	int3
  152c5f:	cc                   	int3

0000000000152c60 <_ZN4core3fmt9Formatter12pad_integral12write_prefix17hf28050afda7653d6E>:
  152c60:	55                   	push   %rbp
  152c61:	48 89 e5             	mov    %rsp,%rbp
  152c64:	41 57                	push   %r15
  152c66:	41 56                	push   %r14
  152c68:	41 54                	push   %r12
  152c6a:	53                   	push   %rbx
  152c6b:	4c 89 c3             	mov    %r8,%rbx
  152c6e:	49 89 ce             	mov    %rcx,%r14
  152c71:	49 89 f7             	mov    %rsi,%r15
  152c74:	81 fa 00 00 11 00    	cmp    $0x110000,%edx
  152c7a:	74 14                	je     152c90 <_ZN4core3fmt9Formatter12pad_integral12write_prefix17hf28050afda7653d6E+0x30>
  152c7c:	49 89 fc             	mov    %rdi,%r12
  152c7f:	89 d6                	mov    %edx,%esi
  152c81:	41 ff 57 20          	call   *0x20(%r15)
  152c85:	4c 89 e7             	mov    %r12,%rdi
  152c88:	89 c1                	mov    %eax,%ecx
  152c8a:	b0 01                	mov    $0x1,%al
  152c8c:	84 c9                	test   %cl,%cl
  152c8e:	75 1b                	jne    152cab <_ZN4core3fmt9Formatter12pad_integral12write_prefix17hf28050afda7653d6E+0x4b>
  152c90:	4d 85 f6             	test   %r14,%r14
  152c93:	74 14                	je     152ca9 <_ZN4core3fmt9Formatter12pad_integral12write_prefix17hf28050afda7653d6E+0x49>
  152c95:	49 8b 47 18          	mov    0x18(%r15),%rax
  152c99:	4c 89 f6             	mov    %r14,%rsi
  152c9c:	48 89 da             	mov    %rbx,%rdx
  152c9f:	5b                   	pop    %rbx
  152ca0:	41 5c                	pop    %r12
  152ca2:	41 5e                	pop    %r14
  152ca4:	41 5f                	pop    %r15
  152ca6:	5d                   	pop    %rbp
  152ca7:	ff e0                	jmp    *%rax
  152ca9:	31 c0                	xor    %eax,%eax
  152cab:	5b                   	pop    %rbx
  152cac:	41 5c                	pop    %r12
  152cae:	41 5e                	pop    %r14
  152cb0:	41 5f                	pop    %r15
  152cb2:	5d                   	pop    %rbp
  152cb3:	c3                   	ret
  152cb4:	cc                   	int3
  152cb5:	cc                   	int3
  152cb6:	cc                   	int3
  152cb7:	cc                   	int3
  152cb8:	cc                   	int3
  152cb9:	cc                   	int3
  152cba:	cc                   	int3
  152cbb:	cc                   	int3
  152cbc:	cc                   	int3
  152cbd:	cc                   	int3
  152cbe:	cc                   	int3
  152cbf:	cc                   	int3

0000000000152cc0 <_ZN4core3fmt9Formatter3pad17hcc41659fc9d5f78fE>:
  152cc0:	55                   	push   %rbp
  152cc1:	48 89 e5             	mov    %rsp,%rbp
  152cc4:	41 57                	push   %r15
  152cc6:	41 56                	push   %r14
  152cc8:	41 55                	push   %r13
  152cca:	41 54                	push   %r12
  152ccc:	53                   	push   %rbx
  152ccd:	48 83 ec 28          	sub    $0x28,%rsp
  152cd1:	49 89 d5             	mov    %rdx,%r13
  152cd4:	49 89 f6             	mov    %rsi,%r14
  152cd7:	44 8b 7f 10          	mov    0x10(%rdi),%r15d
  152cdb:	41 f7 c7 00 00 00 18 	test   $0x18000000,%r15d
  152ce2:	0f 84 f7 00 00 00    	je     152ddf <_ZN4core3fmt9Formatter3pad17hcc41659fc9d5f78fE+0x11f>
  152ce8:	41 f7 c7 00 00 00 10 	test   $0x10000000,%r15d
  152cef:	75 2d                	jne    152d1e <_ZN4core3fmt9Formatter3pad17hcc41659fc9d5f78fE+0x5e>
  152cf1:	49 83 fd 20          	cmp    $0x20,%r13
  152cf5:	0f 83 88 00 00 00    	jae    152d83 <_ZN4core3fmt9Formatter3pad17hcc41659fc9d5f78fE+0xc3>
  152cfb:	4d 85 ed             	test   %r13,%r13
  152cfe:	0f 84 a3 01 00 00    	je     152ea7 <_ZN4core3fmt9Formatter3pad17hcc41659fc9d5f78fE+0x1e7>
  152d04:	44 89 e8             	mov    %r13d,%eax
  152d07:	83 e0 03             	and    $0x3,%eax
  152d0a:	49 83 fd 04          	cmp    $0x4,%r13
  152d0e:	0f 83 9e 01 00 00    	jae    152eb2 <_ZN4core3fmt9Formatter3pad17hcc41659fc9d5f78fE+0x1f2>
  152d14:	45 31 e4             	xor    %r12d,%r12d
  152d17:	31 c9                	xor    %ecx,%ecx
  152d19:	e9 e9 01 00 00       	jmp    152f07 <_ZN4core3fmt9Formatter3pad17hcc41659fc9d5f78fE+0x247>
  152d1e:	44 0f b7 67 16       	movzwl 0x16(%rdi),%r12d
  152d23:	4d 85 e4             	test   %r12,%r12
  152d26:	74 72                	je     152d9a <_ZN4core3fmt9Formatter3pad17hcc41659fc9d5f78fE+0xda>
  152d28:	4d 01 f5             	add    %r14,%r13
  152d2b:	4c 89 e0             	mov    %r12,%rax
  152d2e:	31 f6                	xor    %esi,%esi
  152d30:	4c 89 f1             	mov    %r14,%rcx
  152d33:	eb 20                	jmp    152d55 <_ZN4core3fmt9Formatter3pad17hcc41659fc9d5f78fE+0x95>
  152d35:	66 66 2e 0f 1f 84 00 	data16 cs nopw 0x0(%rax,%rax,1)
  152d3c:	00 00 00 00 
  152d40:	4c 8d 41 01          	lea    0x1(%rcx),%r8
  152d44:	4c 89 c6             	mov    %r8,%rsi
  152d47:	48 29 ce             	sub    %rcx,%rsi
  152d4a:	48 01 d6             	add    %rdx,%rsi
  152d4d:	4c 89 c1             	mov    %r8,%rcx
  152d50:	48 ff c8             	dec    %rax
  152d53:	74 47                	je     152d9c <_ZN4core3fmt9Formatter3pad17hcc41659fc9d5f78fE+0xdc>
  152d55:	48 89 f2             	mov    %rsi,%rdx
  152d58:	4c 39 e9             	cmp    %r13,%rcx
  152d5b:	74 43                	je     152da0 <_ZN4core3fmt9Formatter3pad17hcc41659fc9d5f78fE+0xe0>
  152d5d:	0f b6 31             	movzbl (%rcx),%esi
  152d60:	40 84 f6             	test   %sil,%sil
  152d63:	79 db                	jns    152d40 <_ZN4core3fmt9Formatter3pad17hcc41659fc9d5f78fE+0x80>
  152d65:	40 80 fe e0          	cmp    $0xe0,%sil
  152d69:	72 0c                	jb     152d77 <_ZN4core3fmt9Formatter3pad17hcc41659fc9d5f78fE+0xb7>
  152d6b:	40 80 fe f0          	cmp    $0xf0,%sil
  152d6f:	72 0c                	jb     152d7d <_ZN4core3fmt9Formatter3pad17hcc41659fc9d5f78fE+0xbd>
  152d71:	4c 8d 41 04          	lea    0x4(%rcx),%r8
  152d75:	eb cd                	jmp    152d44 <_ZN4core3fmt9Formatter3pad17hcc41659fc9d5f78fE+0x84>
  152d77:	4c 8d 41 02          	lea    0x2(%rcx),%r8
  152d7b:	eb c7                	jmp    152d44 <_ZN4core3fmt9Formatter3pad17hcc41659fc9d5f78fE+0x84>
  152d7d:	4c 8d 41 03          	lea    0x3(%rcx),%r8
  152d81:	eb c1                	jmp    152d44 <_ZN4core3fmt9Formatter3pad17hcc41659fc9d5f78fE+0x84>
  152d83:	48 89 fb             	mov    %rdi,%rbx
  152d86:	4c 89 f7             	mov    %r14,%rdi
  152d89:	4c 89 ee             	mov    %r13,%rsi
  152d8c:	ff 15 2e 1a 00 00    	call   *0x1a2e(%rip)        # 1547c0 <memset+0xf60>
  152d92:	48 89 df             	mov    %rbx,%rdi
  152d95:	49 89 c4             	mov    %rax,%r12
  152d98:	eb 0f                	jmp    152da9 <_ZN4core3fmt9Formatter3pad17hcc41659fc9d5f78fE+0xe9>
  152d9a:	31 f6                	xor    %esi,%esi
  152d9c:	31 c0                	xor    %eax,%eax
  152d9e:	eb 03                	jmp    152da3 <_ZN4core3fmt9Formatter3pad17hcc41659fc9d5f78fE+0xe3>
  152da0:	48 89 d6             	mov    %rdx,%rsi
  152da3:	49 29 c4             	sub    %rax,%r12
  152da6:	49 89 f5             	mov    %rsi,%r13
  152da9:	0f b7 47 14          	movzwl 0x14(%rdi),%eax
  152dad:	49 39 c4             	cmp    %rax,%r12
  152db0:	73 2d                	jae    152ddf <_ZN4core3fmt9Formatter3pad17hcc41659fc9d5f78fE+0x11f>
  152db2:	48 89 45 c0          	mov    %rax,-0x40(%rbp)
  152db6:	89 c2                	mov    %eax,%edx
  152db8:	44 29 e2             	sub    %r12d,%edx
  152dbb:	44 89 f8             	mov    %r15d,%eax
  152dbe:	c1 e8 1d             	shr    $0x1d,%eax
  152dc1:	83 e0 03             	and    $0x3,%eax
  152dc4:	48 8d 0d 05 18 00 00 	lea    0x1805(%rip),%rcx        # 1545d0 <memset+0xd70>
  152dcb:	48 63 04 81          	movslq (%rcx,%rax,4),%rax
  152dcf:	48 01 c8             	add    %rcx,%rax
  152dd2:	4c 89 6d b0          	mov    %r13,-0x50(%rbp)
  152dd6:	89 55 cc             	mov    %edx,-0x34(%rbp)
  152dd9:	ff e0                	jmp    *%rax
  152ddb:	31 c0                	xor    %eax,%eax
  152ddd:	eb 2d                	jmp    152e0c <_ZN4core3fmt9Formatter3pad17hcc41659fc9d5f78fE+0x14c>
  152ddf:	48 8b 07             	mov    (%rdi),%rax
  152de2:	48 8b 4f 08          	mov    0x8(%rdi),%rcx
  152de6:	48 8b 49 18          	mov    0x18(%rcx),%rcx
  152dea:	48 89 c7             	mov    %rax,%rdi
  152ded:	4c 89 f6             	mov    %r14,%rsi
  152df0:	4c 89 ea             	mov    %r13,%rdx
  152df3:	48 83 c4 28          	add    $0x28,%rsp
  152df7:	5b                   	pop    %rbx
  152df8:	41 5c                	pop    %r12
  152dfa:	41 5d                	pop    %r13
  152dfc:	41 5e                	pop    %r14
  152dfe:	41 5f                	pop    %r15
  152e00:	5d                   	pop    %rbp
  152e01:	ff e1                	jmp    *%rcx
  152e03:	89 d0                	mov    %edx,%eax
  152e05:	eb 05                	jmp    152e0c <_ZN4core3fmt9Formatter3pad17hcc41659fc9d5f78fE+0x14c>
  152e07:	0f b7 c2             	movzwl %dx,%eax
  152e0a:	d1 e8                	shr    $1,%eax
  152e0c:	41 81 e7 ff ff 1f 00 	and    $0x1fffff,%r15d
  152e13:	4c 8b 2f             	mov    (%rdi),%r13
  152e16:	48 8b 4f 08          	mov    0x8(%rdi),%rcx
  152e1a:	48 89 4d d0          	mov    %rcx,-0x30(%rbp)
  152e1e:	48 89 45 b8          	mov    %rax,-0x48(%rbp)
  152e22:	8d 58 01             	lea    0x1(%rax),%ebx
  152e25:	66 66 2e 0f 1f 84 00 	data16 cs nopw 0x0(%rax,%rax,1)
  152e2c:	00 00 00 00 
  152e30:	4c 89 ef             	mov    %r13,%rdi
  152e33:	66 ff cb             	dec    %bx
  152e36:	74 15                	je     152e4d <_ZN4core3fmt9Formatter3pad17hcc41659fc9d5f78fE+0x18d>
  152e38:	44 89 fe             	mov    %r15d,%esi
  152e3b:	48 8b 45 d0          	mov    -0x30(%rbp),%rax
  152e3f:	ff 50 20             	call   *0x20(%rax)
  152e42:	84 c0                	test   %al,%al
  152e44:	74 ea                	je     152e30 <_ZN4core3fmt9Formatter3pad17hcc41659fc9d5f78fE+0x170>
  152e46:	b0 01                	mov    $0x1,%al
  152e48:	e9 f7 00 00 00       	jmp    152f44 <_ZN4core3fmt9Formatter3pad17hcc41659fc9d5f78fE+0x284>
  152e4d:	4c 89 f6             	mov    %r14,%rsi
  152e50:	48 8b 55 b0          	mov    -0x50(%rbp),%rdx
  152e54:	48 8b 45 d0          	mov    -0x30(%rbp),%rax
  152e58:	ff 50 18             	call   *0x18(%rax)
  152e5b:	89 c1                	mov    %eax,%ecx
  152e5d:	b0 01                	mov    $0x1,%al
  152e5f:	84 c9                	test   %cl,%cl
  152e61:	0f 85 dd 00 00 00    	jne    152f44 <_ZN4core3fmt9Formatter3pad17hcc41659fc9d5f78fE+0x284>
  152e67:	8b 5d cc             	mov    -0x34(%rbp),%ebx
  152e6a:	48 8b 45 b8          	mov    -0x48(%rbp),%rax
  152e6e:	29 c3                	sub    %eax,%ebx
  152e70:	44 01 e0             	add    %r12d,%eax
  152e73:	49 89 c4             	mov    %rax,%r12
  152e76:	44 2b 65 c0          	sub    -0x40(%rbp),%r12d
  152e7a:	66 41 be ff ff       	mov    $0xffff,%r14w
  152e7f:	90                   	nop
  152e80:	43 8d 04 34          	lea    (%r12,%r14,1),%eax
  152e84:	66 83 f8 ff          	cmp    $0xffff,%ax
  152e88:	0f 84 ac 00 00 00    	je     152f3a <_ZN4core3fmt9Formatter3pad17hcc41659fc9d5f78fE+0x27a>
  152e8e:	4c 89 ef             	mov    %r13,%rdi
  152e91:	44 89 fe             	mov    %r15d,%esi
  152e94:	48 8b 45 d0          	mov    -0x30(%rbp),%rax
  152e98:	ff 50 20             	call   *0x20(%rax)
  152e9b:	41 ff c6             	inc    %r14d
  152e9e:	84 c0                	test   %al,%al
  152ea0:	74 de                	je     152e80 <_ZN4core3fmt9Formatter3pad17hcc41659fc9d5f78fE+0x1c0>
  152ea2:	e9 96 00 00 00       	jmp    152f3d <_ZN4core3fmt9Formatter3pad17hcc41659fc9d5f78fE+0x27d>
  152ea7:	45 31 ed             	xor    %r13d,%r13d
  152eaa:	45 31 e4             	xor    %r12d,%r12d
  152ead:	e9 f7 fe ff ff       	jmp    152da9 <_ZN4core3fmt9Formatter3pad17hcc41659fc9d5f78fE+0xe9>
  152eb2:	44 89 ea             	mov    %r13d,%edx
  152eb5:	83 e2 1c             	and    $0x1c,%edx
  152eb8:	45 31 e4             	xor    %r12d,%r12d
  152ebb:	31 c9                	xor    %ecx,%ecx
  152ebd:	0f 1f 00             	nopl   (%rax)
  152ec0:	31 f6                	xor    %esi,%esi
  152ec2:	41 80 3c 0e c0       	cmpb   $0xc0,(%r14,%rcx,1)
  152ec7:	40 0f 9d c6          	setge  %sil
  152ecb:	4c 01 e6             	add    %r12,%rsi
  152ece:	45 31 c0             	xor    %r8d,%r8d
  152ed1:	41 80 7c 0e 01 c0    	cmpb   $0xc0,0x1(%r14,%rcx,1)
  152ed7:	41 0f 9d c0          	setge  %r8b
  152edb:	45 31 c9             	xor    %r9d,%r9d
  152ede:	41 80 7c 0e 02 c0    	cmpb   $0xc0,0x2(%r14,%rcx,1)
  152ee4:	41 0f 9d c1          	setge  %r9b
  152ee8:	4d 01 c1             	add    %r8,%r9
  152eeb:	49 01 f1             	add    %rsi,%r9
  152eee:	45 31 e4             	xor    %r12d,%r12d
  152ef1:	41 80 7c 0e 03 c0    	cmpb   $0xc0,0x3(%r14,%rcx,1)
  152ef7:	41 0f 9d c4          	setge  %r12b
  152efb:	4d 01 cc             	add    %r9,%r12
  152efe:	48 83 c1 04          	add    $0x4,%rcx
  152f02:	48 39 ca             	cmp    %rcx,%rdx
  152f05:	75 b9                	jne    152ec0 <_ZN4core3fmt9Formatter3pad17hcc41659fc9d5f78fE+0x200>
  152f07:	48 85 c0             	test   %rax,%rax
  152f0a:	0f 84 99 fe ff ff    	je     152da9 <_ZN4core3fmt9Formatter3pad17hcc41659fc9d5f78fE+0xe9>
  152f10:	4c 01 f1             	add    %r14,%rcx
  152f13:	31 d2                	xor    %edx,%edx
  152f15:	66 66 2e 0f 1f 84 00 	data16 cs nopw 0x0(%rax,%rax,1)
  152f1c:	00 00 00 00 
  152f20:	31 f6                	xor    %esi,%esi
  152f22:	80 3c 11 c0          	cmpb   $0xc0,(%rcx,%rdx,1)
  152f26:	40 0f 9d c6          	setge  %sil
  152f2a:	49 01 f4             	add    %rsi,%r12
  152f2d:	48 ff c2             	inc    %rdx
  152f30:	48 39 d0             	cmp    %rdx,%rax
  152f33:	75 eb                	jne    152f20 <_ZN4core3fmt9Formatter3pad17hcc41659fc9d5f78fE+0x260>
  152f35:	e9 6f fe ff ff       	jmp    152da9 <_ZN4core3fmt9Formatter3pad17hcc41659fc9d5f78fE+0xe9>
  152f3a:	41 89 de             	mov    %ebx,%r14d
  152f3d:	66 41 39 de          	cmp    %bx,%r14w
  152f41:	0f 92 c0             	setb   %al
  152f44:	48 83 c4 28          	add    $0x28,%rsp
  152f48:	5b                   	pop    %rbx
  152f49:	41 5c                	pop    %r12
  152f4b:	41 5d                	pop    %r13
  152f4d:	41 5e                	pop    %r14
  152f4f:	41 5f                	pop    %r15
  152f51:	5d                   	pop    %rbp
  152f52:	c3                   	ret
  152f53:	cc                   	int3
  152f54:	cc                   	int3
  152f55:	cc                   	int3
  152f56:	cc                   	int3
  152f57:	cc                   	int3
  152f58:	cc                   	int3
  152f59:	cc                   	int3
  152f5a:	cc                   	int3
  152f5b:	cc                   	int3
  152f5c:	cc                   	int3
  152f5d:	cc                   	int3
  152f5e:	cc                   	int3
  152f5f:	cc                   	int3

0000000000152f60 <_ZN4core3fmt9Formatter9write_str17h8fd6fdb639a653d7E>:
  152f60:	55                   	push   %rbp
  152f61:	48 89 e5             	mov    %rsp,%rbp
  152f64:	48 8b 07             	mov    (%rdi),%rax
  152f67:	48 8b 4f 08          	mov    0x8(%rdi),%rcx
  152f6b:	48 8b 49 18          	mov    0x18(%rcx),%rcx
  152f6f:	48 89 c7             	mov    %rax,%rdi
  152f72:	5d                   	pop    %rbp
  152f73:	ff e1                	jmp    *%rcx
  152f75:	cc                   	int3
  152f76:	cc                   	int3
  152f77:	cc                   	int3
  152f78:	cc                   	int3
  152f79:	cc                   	int3
  152f7a:	cc                   	int3
  152f7b:	cc                   	int3
  152f7c:	cc                   	int3
  152f7d:	cc                   	int3
  152f7e:	cc                   	int3
  152f7f:	cc                   	int3

0000000000152f80 <_ZN4core3fmt9Formatter12debug_struct17h4e20f9212e7c439cE>:
  152f80:	55                   	push   %rbp
  152f81:	48 89 e5             	mov    %rsp,%rbp
  152f84:	41 56                	push   %r14
  152f86:	53                   	push   %rbx
  152f87:	48 89 f3             	mov    %rsi,%rbx
  152f8a:	49 89 fe             	mov    %rdi,%r14
  152f8d:	48 8b 3e             	mov    (%rsi),%rdi
  152f90:	48 8b 46 08          	mov    0x8(%rsi),%rax
  152f94:	48 89 d6             	mov    %rdx,%rsi
  152f97:	48 89 ca             	mov    %rcx,%rdx
  152f9a:	ff 50 18             	call   *0x18(%rax)
  152f9d:	49 89 1e             	mov    %rbx,(%r14)
  152fa0:	41 88 46 08          	mov    %al,0x8(%r14)
  152fa4:	41 c6 46 09 00       	movb   $0x0,0x9(%r14)
  152fa9:	4c 89 f0             	mov    %r14,%rax
  152fac:	5b                   	pop    %rbx
  152fad:	41 5e                	pop    %r14
  152faf:	5d                   	pop    %rbp
  152fb0:	c3                   	ret
  152fb1:	cc                   	int3
  152fb2:	cc                   	int3
  152fb3:	cc                   	int3
  152fb4:	cc                   	int3
  152fb5:	cc                   	int3
  152fb6:	cc                   	int3
  152fb7:	cc                   	int3
  152fb8:	cc                   	int3
  152fb9:	cc                   	int3
  152fba:	cc                   	int3
  152fbb:	cc                   	int3
  152fbc:	cc                   	int3
  152fbd:	cc                   	int3
  152fbe:	cc                   	int3
  152fbf:	cc                   	int3

0000000000152fc0 <_ZN43_$LT$bool$u20$as$u20$core..fmt..Display$GT$3fmt17h32dc4cfb81ad4854E>:
  152fc0:	55                   	push   %rbp
  152fc1:	48 89 e5             	mov    %rsp,%rbp
  152fc4:	48 89 f0             	mov    %rsi,%rax
  152fc7:	80 3f 00             	cmpb   $0x0,(%rdi)
  152fca:	74 16                	je     152fe2 <_ZN43_$LT$bool$u20$as$u20$core..fmt..Display$GT$3fmt17h32dc4cfb81ad4854E+0x22>
  152fcc:	48 8d 35 58 10 00 00 	lea    0x1058(%rip),%rsi        # 15402b <memset+0x7cb>
  152fd3:	ba 04 00 00 00       	mov    $0x4,%edx
  152fd8:	48 89 c7             	mov    %rax,%rdi
  152fdb:	5d                   	pop    %rbp
  152fdc:	ff 25 b6 17 00 00    	jmp    *0x17b6(%rip)        # 154798 <memset+0xf38>
  152fe2:	48 8d 35 49 17 00 00 	lea    0x1749(%rip),%rsi        # 154732 <memset+0xed2>
  152fe9:	ba 05 00 00 00       	mov    $0x5,%edx
  152fee:	48 89 c7             	mov    %rax,%rdi
  152ff1:	5d                   	pop    %rbp
  152ff2:	ff 25 a0 17 00 00    	jmp    *0x17a0(%rip)        # 154798 <memset+0xf38>
  152ff8:	cc                   	int3
  152ff9:	cc                   	int3
  152ffa:	cc                   	int3
  152ffb:	cc                   	int3
  152ffc:	cc                   	int3
  152ffd:	cc                   	int3
  152ffe:	cc                   	int3
  152fff:	cc                   	int3

0000000000153000 <_ZN4core3fmt17pointer_fmt_inner17h6cf5fe4ad8d55d6fE>:
  153000:	55                   	push   %rbp
  153001:	48 89 e5             	mov    %rsp,%rbp
  153004:	41 56                	push   %r14
  153006:	53                   	push   %rbx
  153007:	48 81 ec 80 00 00 00 	sub    $0x80,%rsp
  15300e:	48 89 f3             	mov    %rsi,%rbx
  153011:	4c 8b 76 10          	mov    0x10(%rsi),%r14
  153015:	44 89 f0             	mov    %r14d,%eax
  153018:	41 f7 c6 00 00 80 00 	test   $0x800000,%r14d
  15301f:	74 1b                	je     15303c <_ZN4core3fmt17pointer_fmt_inner17h6cf5fe4ad8d55d6fE+0x3c>
  153021:	41 f7 c6 00 00 00 08 	test   $0x8000000,%r14d
  153028:	75 0d                	jne    153037 <_ZN4core3fmt17pointer_fmt_inner17h6cf5fe4ad8d55d6fE+0x37>
  15302a:	0d 00 00 00 09       	or     $0x9000000,%eax
  15302f:	66 c7 43 14 12 00    	movw   $0x12,0x14(%rbx)
  153035:	eb 05                	jmp    15303c <_ZN4core3fmt17pointer_fmt_inner17h6cf5fe4ad8d55d6fE+0x3c>
  153037:	0d 00 00 00 01       	or     $0x1000000,%eax
  15303c:	0d 00 00 80 00       	or     $0x800000,%eax
  153041:	89 43 10             	mov    %eax,0x10(%rbx)
  153044:	45 31 c9             	xor    %r9d,%r9d
  153047:	48 89 f8             	mov    %rdi,%rax
  15304a:	66 0f 1f 44 00 00    	nopw   0x0(%rax,%rax,1)
  153050:	48 c1 e8 04          	shr    $0x4,%rax
  153054:	89 f9                	mov    %edi,%ecx
  153056:	80 e1 0f             	and    $0xf,%cl
  153059:	8d 51 30             	lea    0x30(%rcx),%edx
  15305c:	8d 71 57             	lea    0x57(%rcx),%esi
  15305f:	80 f9 0a             	cmp    $0xa,%cl
  153062:	0f b6 ca             	movzbl %dl,%ecx
  153065:	40 0f b6 d6          	movzbl %sil,%edx
  153069:	0f 42 d1             	cmovb  %ecx,%edx
  15306c:	42 88 54 0d ef       	mov    %dl,-0x11(%rbp,%r9,1)
  153071:	49 ff c9             	dec    %r9
  153074:	48 83 ff 0f          	cmp    $0xf,%rdi
  153078:	48 89 c7             	mov    %rax,%rdi
  15307b:	77 d3                	ja     153050 <_ZN4core3fmt17pointer_fmt_inner17h6cf5fe4ad8d55d6fE+0x50>
  15307d:	4d 8d 04 29          	lea    (%r9,%rbp,1),%r8
  153081:	49 83 c0 f0          	add    $0xfffffffffffffff0,%r8
  153085:	49 f7 d9             	neg    %r9
  153088:	48 8d 15 d9 15 00 00 	lea    0x15d9(%rip),%rdx        # 154668 <memset+0xe08>
  15308f:	b9 02 00 00 00       	mov    $0x2,%ecx
  153094:	48 89 df             	mov    %rbx,%rdi
  153097:	be 01 00 00 00       	mov    $0x1,%esi
  15309c:	ff 15 16 17 00 00    	call   *0x1716(%rip)        # 1547b8 <memset+0xf58>
  1530a2:	4c 89 73 10          	mov    %r14,0x10(%rbx)
  1530a6:	48 81 c4 80 00 00 00 	add    $0x80,%rsp
  1530ad:	5b                   	pop    %rbx
  1530ae:	41 5e                	pop    %r14
  1530b0:	5d                   	pop    %rbp
  1530b1:	c3                   	ret
  1530b2:	cc                   	int3
  1530b3:	cc                   	int3
  1530b4:	cc                   	int3
  1530b5:	cc                   	int3
  1530b6:	cc                   	int3
  1530b7:	cc                   	int3
  1530b8:	cc                   	int3
  1530b9:	cc                   	int3
  1530ba:	cc                   	int3
  1530bb:	cc                   	int3
  1530bc:	cc                   	int3
  1530bd:	cc                   	int3
  1530be:	cc                   	int3
  1530bf:	cc                   	int3

00000000001530c0 <_ZN4core3str5count14do_count_chars17hf3976a4579d5c9c9E>:
  1530c0:	4c 8d 4f 07          	lea    0x7(%rdi),%r9
  1530c4:	49 83 e1 f8          	and    $0xfffffffffffffff8,%r9
  1530c8:	4c 89 c8             	mov    %r9,%rax
  1530cb:	48 29 f8             	sub    %rdi,%rax
  1530ce:	48 89 f1             	mov    %rsi,%rcx
  1530d1:	48 29 c1             	sub    %rax,%rcx
  1530d4:	73 19                	jae    1530ef <_ZN4core3str5count14do_count_chars17hf3976a4579d5c9c9E+0x2f>
  1530d6:	48 85 f6             	test   %rsi,%rsi
  1530d9:	74 59                	je     153134 <_ZN4core3str5count14do_count_chars17hf3976a4579d5c9c9E+0x74>
  1530db:	89 f1                	mov    %esi,%ecx
  1530dd:	83 e1 03             	and    $0x3,%ecx
  1530e0:	48 83 fe 04          	cmp    $0x4,%rsi
  1530e4:	73 51                	jae    153137 <_ZN4core3str5count14do_count_chars17hf3976a4579d5c9c9E+0x77>
  1530e6:	31 c0                	xor    %eax,%eax
  1530e8:	31 d2                	xor    %edx,%edx
  1530ea:	e9 91 00 00 00       	jmp    153180 <_ZN4core3str5count14do_count_chars17hf3976a4579d5c9c9E+0xc0>
  1530ef:	48 83 f9 08          	cmp    $0x8,%rcx
  1530f3:	72 e1                	jb     1530d6 <_ZN4core3str5count14do_count_chars17hf3976a4579d5c9c9E+0x16>
  1530f5:	55                   	push   %rbp
  1530f6:	48 89 e5             	mov    %rsp,%rbp
  1530f9:	41 57                	push   %r15
  1530fb:	41 56                	push   %r14
  1530fd:	41 55                	push   %r13
  1530ff:	41 54                	push   %r12
  153101:	53                   	push   %rbx
  153102:	89 ca                	mov    %ecx,%edx
  153104:	83 e2 07             	and    $0x7,%edx
  153107:	49 39 f9             	cmp    %rdi,%r9
  15310a:	75 07                	jne    153113 <_ZN4core3str5count14do_count_chars17hf3976a4579d5c9c9E+0x53>
  15310c:	31 f6                	xor    %esi,%esi
  15310e:	e9 14 01 00 00       	jmp    153227 <_ZN4core3str5count14do_count_chars17hf3976a4579d5c9c9E+0x167>
  153113:	41 89 c0             	mov    %eax,%r8d
  153116:	41 83 e0 03          	and    $0x3,%r8d
  15311a:	48 89 fe             	mov    %rdi,%rsi
  15311d:	4c 29 ce             	sub    %r9,%rsi
  153120:	48 83 fe fc          	cmp    $0xfffffffffffffffc,%rsi
  153124:	0f 86 7c 00 00 00    	jbe    1531a6 <_ZN4core3str5count14do_count_chars17hf3976a4579d5c9c9E+0xe6>
  15312a:	31 f6                	xor    %esi,%esi
  15312c:	45 31 c9             	xor    %r9d,%r9d
  15312f:	e9 d0 00 00 00       	jmp    153204 <_ZN4core3str5count14do_count_chars17hf3976a4579d5c9c9E+0x144>
  153134:	31 c0                	xor    %eax,%eax
  153136:	c3                   	ret
  153137:	48 83 e6 fc          	and    $0xfffffffffffffffc,%rsi
  15313b:	31 c0                	xor    %eax,%eax
  15313d:	31 d2                	xor    %edx,%edx
  15313f:	90                   	nop
  153140:	45 31 c0             	xor    %r8d,%r8d
  153143:	80 3c 17 c0          	cmpb   $0xc0,(%rdi,%rdx,1)
  153147:	41 0f 9d c0          	setge  %r8b
  15314b:	49 01 c0             	add    %rax,%r8
  15314e:	31 c0                	xor    %eax,%eax
  153150:	80 7c 17 01 c0       	cmpb   $0xc0,0x1(%rdi,%rdx,1)
  153155:	0f 9d c0             	setge  %al
  153158:	45 31 c9             	xor    %r9d,%r9d
  15315b:	80 7c 17 02 c0       	cmpb   $0xc0,0x2(%rdi,%rdx,1)
  153160:	41 0f 9d c1          	setge  %r9b
  153164:	49 01 c1             	add    %rax,%r9
  153167:	4d 01 c1             	add    %r8,%r9
  15316a:	31 c0                	xor    %eax,%eax
  15316c:	80 7c 17 03 c0       	cmpb   $0xc0,0x3(%rdi,%rdx,1)
  153171:	0f 9d c0             	setge  %al
  153174:	4c 01 c8             	add    %r9,%rax
  153177:	48 83 c2 04          	add    $0x4,%rdx
  15317b:	48 39 d6             	cmp    %rdx,%rsi
  15317e:	75 c0                	jne    153140 <_ZN4core3str5count14do_count_chars17hf3976a4579d5c9c9E+0x80>
  153180:	48 85 c9             	test   %rcx,%rcx
  153183:	74 20                	je     1531a5 <_ZN4core3str5count14do_count_chars17hf3976a4579d5c9c9E+0xe5>
  153185:	48 01 d7             	add    %rdx,%rdi
  153188:	31 d2                	xor    %edx,%edx
  15318a:	66 0f 1f 44 00 00    	nopw   0x0(%rax,%rax,1)
  153190:	31 f6                	xor    %esi,%esi
  153192:	80 3c 17 c0          	cmpb   $0xc0,(%rdi,%rdx,1)
  153196:	40 0f 9d c6          	setge  %sil
  15319a:	48 01 f0             	add    %rsi,%rax
  15319d:	48 ff c2             	inc    %rdx
  1531a0:	48 39 d1             	cmp    %rdx,%rcx
  1531a3:	75 eb                	jne    153190 <_ZN4core3str5count14do_count_chars17hf3976a4579d5c9c9E+0xd0>
  1531a5:	c3                   	ret
  1531a6:	41 89 c2             	mov    %eax,%r10d
  1531a9:	41 83 e2 04          	and    $0x4,%r10d
  1531ad:	31 f6                	xor    %esi,%esi
  1531af:	45 31 c9             	xor    %r9d,%r9d
  1531b2:	66 66 66 66 66 2e 0f 	data16 data16 data16 data16 cs nopw 0x0(%rax,%rax,1)
  1531b9:	1f 84 00 00 00 00 00 
  1531c0:	45 31 db             	xor    %r11d,%r11d
  1531c3:	42 80 3c 0f c0       	cmpb   $0xc0,(%rdi,%r9,1)
  1531c8:	41 0f 9d c3          	setge  %r11b
  1531cc:	49 01 f3             	add    %rsi,%r11
  1531cf:	31 f6                	xor    %esi,%esi
  1531d1:	42 80 7c 0f 01 c0    	cmpb   $0xc0,0x1(%rdi,%r9,1)
  1531d7:	40 0f 9d c6          	setge  %sil
  1531db:	31 db                	xor    %ebx,%ebx
  1531dd:	42 80 7c 0f 02 c0    	cmpb   $0xc0,0x2(%rdi,%r9,1)
  1531e3:	0f 9d c3             	setge  %bl
  1531e6:	48 01 f3             	add    %rsi,%rbx
  1531e9:	4c 01 db             	add    %r11,%rbx
  1531ec:	31 f6                	xor    %esi,%esi
  1531ee:	42 80 7c 0f 03 c0    	cmpb   $0xc0,0x3(%rdi,%r9,1)
  1531f4:	40 0f 9d c6          	setge  %sil
  1531f8:	48 01 de             	add    %rbx,%rsi
  1531fb:	49 83 c1 04          	add    $0x4,%r9
  1531ff:	4d 39 ca             	cmp    %r9,%r10
  153202:	75 bc                	jne    1531c0 <_ZN4core3str5count14do_count_chars17hf3976a4579d5c9c9E+0x100>
  153204:	4d 85 c0             	test   %r8,%r8
  153207:	74 1e                	je     153227 <_ZN4core3str5count14do_count_chars17hf3976a4579d5c9c9E+0x167>
  153209:	49 01 f9             	add    %rdi,%r9
  15320c:	45 31 d2             	xor    %r10d,%r10d
  15320f:	90                   	nop
  153210:	45 31 db             	xor    %r11d,%r11d
  153213:	43 80 3c 11 c0       	cmpb   $0xc0,(%r9,%r10,1)
  153218:	41 0f 9d c3          	setge  %r11b
  15321c:	4c 01 de             	add    %r11,%rsi
  15321f:	49 ff c2             	inc    %r10
  153222:	4d 39 d0             	cmp    %r10,%r8
  153225:	75 e9                	jne    153210 <_ZN4core3str5count14do_count_chars17hf3976a4579d5c9c9E+0x150>
  153227:	48 01 c7             	add    %rax,%rdi
  15322a:	48 85 d2             	test   %rdx,%rdx
  15322d:	0f 84 8f 00 00 00    	je     1532c2 <_ZN4core3str5count14do_count_chars17hf3976a4579d5c9c9E+0x202>
  153233:	49 89 c8             	mov    %rcx,%r8
  153236:	49 83 e0 f8          	and    $0xfffffffffffffff8,%r8
  15323a:	31 c0                	xor    %eax,%eax
  15323c:	42 80 3c 07 c0       	cmpb   $0xc0,(%rdi,%r8,1)
  153241:	0f 9d c0             	setge  %al
  153244:	83 fa 01             	cmp    $0x1,%edx
  153247:	74 7b                	je     1532c4 <_ZN4core3str5count14do_count_chars17hf3976a4579d5c9c9E+0x204>
  153249:	45 31 c9             	xor    %r9d,%r9d
  15324c:	42 80 7c 07 01 c0    	cmpb   $0xc0,0x1(%rdi,%r8,1)
  153252:	41 0f 9d c1          	setge  %r9b
  153256:	4c 01 c8             	add    %r9,%rax
  153259:	83 fa 02             	cmp    $0x2,%edx
  15325c:	74 66                	je     1532c4 <_ZN4core3str5count14do_count_chars17hf3976a4579d5c9c9E+0x204>
  15325e:	45 31 c9             	xor    %r9d,%r9d
  153261:	42 80 7c 07 02 c0    	cmpb   $0xc0,0x2(%rdi,%r8,1)
  153267:	41 0f 9d c1          	setge  %r9b
  15326b:	4c 01 c8             	add    %r9,%rax
  15326e:	83 fa 03             	cmp    $0x3,%edx
  153271:	74 51                	je     1532c4 <_ZN4core3str5count14do_count_chars17hf3976a4579d5c9c9E+0x204>
  153273:	45 31 c9             	xor    %r9d,%r9d
  153276:	42 80 7c 07 03 c0    	cmpb   $0xc0,0x3(%rdi,%r8,1)
  15327c:	41 0f 9d c1          	setge  %r9b
  153280:	4c 01 c8             	add    %r9,%rax
  153283:	83 fa 04             	cmp    $0x4,%edx
  153286:	74 3c                	je     1532c4 <_ZN4core3str5count14do_count_chars17hf3976a4579d5c9c9E+0x204>
  153288:	45 31 c9             	xor    %r9d,%r9d
  15328b:	42 80 7c 07 04 c0    	cmpb   $0xc0,0x4(%rdi,%r8,1)
  153291:	41 0f 9d c1          	setge  %r9b
  153295:	4c 01 c8             	add    %r9,%rax
  153298:	83 fa 05             	cmp    $0x5,%edx
  15329b:	74 27                	je     1532c4 <_ZN4core3str5count14do_count_chars17hf3976a4579d5c9c9E+0x204>
  15329d:	45 31 c9             	xor    %r9d,%r9d
  1532a0:	42 80 7c 07 05 c0    	cmpb   $0xc0,0x5(%rdi,%r8,1)
  1532a6:	41 0f 9d c1          	setge  %r9b
  1532aa:	4c 01 c8             	add    %r9,%rax
  1532ad:	83 fa 06             	cmp    $0x6,%edx
  1532b0:	74 12                	je     1532c4 <_ZN4core3str5count14do_count_chars17hf3976a4579d5c9c9E+0x204>
  1532b2:	31 d2                	xor    %edx,%edx
  1532b4:	42 80 7c 07 06 c0    	cmpb   $0xc0,0x6(%rdi,%r8,1)
  1532ba:	0f 9d c2             	setge  %dl
  1532bd:	48 01 d0             	add    %rdx,%rax
  1532c0:	eb 02                	jmp    1532c4 <_ZN4core3str5count14do_count_chars17hf3976a4579d5c9c9E+0x204>
  1532c2:	31 c0                	xor    %eax,%eax
  1532c4:	48 01 f0             	add    %rsi,%rax
  1532c7:	48 c1 e9 03          	shr    $0x3,%rcx
  1532cb:	49 b8 01 01 01 01 01 	movabs $0x101010101010101,%r8
  1532d2:	01 01 01 
  1532d5:	48 be ff 00 ff 00 ff 	movabs $0xff00ff00ff00ff,%rsi
  1532dc:	00 ff 00 
  1532df:	48 ba 01 00 01 00 01 	movabs $0x1000100010001,%rdx
  1532e6:	00 01 00 
  1532e9:	eb 38                	jmp    153323 <_ZN4core3str5count14do_count_chars17hf3976a4579d5c9c9E+0x263>
  1532eb:	0f 1f 44 00 00       	nopl   0x0(%rax,%rax,1)
  1532f0:	31 db                	xor    %ebx,%ebx
  1532f2:	4c 01 cf             	add    %r9,%rdi
  1532f5:	4c 29 d1             	sub    %r10,%rcx
  1532f8:	45 89 d3             	mov    %r10d,%r11d
  1532fb:	41 83 e3 03          	and    $0x3,%r11d
  1532ff:	49 89 de             	mov    %rbx,%r14
  153302:	49 21 f6             	and    %rsi,%r14
  153305:	48 c1 eb 08          	shr    $0x8,%rbx
  153309:	48 21 f3             	and    %rsi,%rbx
  15330c:	4c 01 f3             	add    %r14,%rbx
  15330f:	48 0f af da          	imul   %rdx,%rbx
  153313:	48 c1 eb 30          	shr    $0x30,%rbx
  153317:	48 01 d8             	add    %rbx,%rax
  15331a:	4d 85 db             	test   %r11,%r11
  15331d:	0f 85 b6 00 00 00    	jne    1533d9 <_ZN4core3str5count14do_count_chars17hf3976a4579d5c9c9E+0x319>
  153323:	48 85 c9             	test   %rcx,%rcx
  153326:	0f 84 2e 01 00 00    	je     15345a <_ZN4core3str5count14do_count_chars17hf3976a4579d5c9c9E+0x39a>
  15332c:	49 89 f9             	mov    %rdi,%r9
  15332f:	48 81 f9 c0 00 00 00 	cmp    $0xc0,%rcx
  153336:	41 ba c0 00 00 00    	mov    $0xc0,%r10d
  15333c:	4c 0f 42 d1          	cmovb  %rcx,%r10
  153340:	42 8d 3c d5 00 00 00 	lea    0x0(,%r10,8),%edi
  153347:	00 
  153348:	48 83 f9 04          	cmp    $0x4,%rcx
  15334c:	72 a2                	jb     1532f0 <_ZN4core3str5count14do_count_chars17hf3976a4579d5c9c9E+0x230>
  15334e:	41 89 fb             	mov    %edi,%r11d
  153351:	41 81 e3 e0 07 00 00 	and    $0x7e0,%r11d
  153358:	4d 01 cb             	add    %r9,%r11
  15335b:	31 db                	xor    %ebx,%ebx
  15335d:	4d 89 ce             	mov    %r9,%r14
  153360:	4d 8b 3e             	mov    (%r14),%r15
  153363:	4d 8b 66 08          	mov    0x8(%r14),%r12
  153367:	4d 89 fd             	mov    %r15,%r13
  15336a:	49 f7 d5             	not    %r13
  15336d:	49 c1 ed 07          	shr    $0x7,%r13
  153371:	49 c1 ef 06          	shr    $0x6,%r15
  153375:	4d 09 ef             	or     %r13,%r15
  153378:	4d 21 c7             	and    %r8,%r15
  15337b:	49 01 df             	add    %rbx,%r15
  15337e:	4c 89 e3             	mov    %r12,%rbx
  153381:	48 f7 d3             	not    %rbx
  153384:	48 c1 eb 07          	shr    $0x7,%rbx
  153388:	49 c1 ec 06          	shr    $0x6,%r12
  15338c:	49 09 dc             	or     %rbx,%r12
  15338f:	4d 21 c4             	and    %r8,%r12
  153392:	4d 8b 6e 10          	mov    0x10(%r14),%r13
  153396:	4c 89 eb             	mov    %r13,%rbx
  153399:	48 f7 d3             	not    %rbx
  15339c:	48 c1 eb 07          	shr    $0x7,%rbx
  1533a0:	49 c1 ed 06          	shr    $0x6,%r13
  1533a4:	49 09 dd             	or     %rbx,%r13
  1533a7:	4d 21 c5             	and    %r8,%r13
  1533aa:	4d 01 e5             	add    %r12,%r13
  1533ad:	4d 01 fd             	add    %r15,%r13
  1533b0:	49 8b 5e 18          	mov    0x18(%r14),%rbx
  1533b4:	49 89 df             	mov    %rbx,%r15
  1533b7:	49 f7 d7             	not    %r15
  1533ba:	49 c1 ef 07          	shr    $0x7,%r15
  1533be:	48 c1 eb 06          	shr    $0x6,%rbx
  1533c2:	4c 09 fb             	or     %r15,%rbx
  1533c5:	4c 21 c3             	and    %r8,%rbx
  1533c8:	4c 01 eb             	add    %r13,%rbx
  1533cb:	49 83 c6 20          	add    $0x20,%r14
  1533cf:	4d 39 de             	cmp    %r11,%r14
  1533d2:	75 8c                	jne    153360 <_ZN4core3str5count14do_count_chars17hf3976a4579d5c9c9E+0x2a0>
  1533d4:	e9 19 ff ff ff       	jmp    1532f2 <_ZN4core3str5count14do_count_chars17hf3976a4579d5c9c9E+0x232>
  1533d9:	41 81 e2 fc 00 00 00 	and    $0xfc,%r10d
  1533e0:	44 89 d1             	mov    %r10d,%ecx
  1533e3:	49 8b 0c c9          	mov    (%r9,%rcx,8),%rcx
  1533e7:	48 89 cf             	mov    %rcx,%rdi
  1533ea:	48 f7 d7             	not    %rdi
  1533ed:	48 c1 ef 07          	shr    $0x7,%rdi
  1533f1:	48 c1 e9 06          	shr    $0x6,%rcx
  1533f5:	48 09 f9             	or     %rdi,%rcx
  1533f8:	4c 21 c1             	and    %r8,%rcx
  1533fb:	41 83 fb 01          	cmp    $0x1,%r11d
  1533ff:	74 3e                	je     15343f <_ZN4core3str5count14do_count_chars17hf3976a4579d5c9c9E+0x37f>
  153401:	4b 8b 7c d1 08       	mov    0x8(%r9,%r10,8),%rdi
  153406:	48 89 fb             	mov    %rdi,%rbx
  153409:	48 f7 d3             	not    %rbx
  15340c:	48 c1 eb 07          	shr    $0x7,%rbx
  153410:	48 c1 ef 06          	shr    $0x6,%rdi
  153414:	48 09 df             	or     %rbx,%rdi
  153417:	4c 21 c7             	and    %r8,%rdi
  15341a:	48 01 f9             	add    %rdi,%rcx
  15341d:	41 83 fb 02          	cmp    $0x2,%r11d
  153421:	74 1c                	je     15343f <_ZN4core3str5count14do_count_chars17hf3976a4579d5c9c9E+0x37f>
  153423:	4b 8b 7c d1 10       	mov    0x10(%r9,%r10,8),%rdi
  153428:	49 89 f9             	mov    %rdi,%r9
  15342b:	49 f7 d1             	not    %r9
  15342e:	49 c1 e9 07          	shr    $0x7,%r9
  153432:	48 c1 ef 06          	shr    $0x6,%rdi
  153436:	4c 09 cf             	or     %r9,%rdi
  153439:	4c 21 c7             	and    %r8,%rdi
  15343c:	48 01 f9             	add    %rdi,%rcx
  15343f:	48 89 cf             	mov    %rcx,%rdi
  153442:	48 21 f7             	and    %rsi,%rdi
  153445:	48 c1 e9 08          	shr    $0x8,%rcx
  153449:	48 21 f1             	and    %rsi,%rcx
  15344c:	48 01 f9             	add    %rdi,%rcx
  15344f:	48 0f af ca          	imul   %rdx,%rcx
  153453:	48 c1 e9 30          	shr    $0x30,%rcx
  153457:	48 01 c8             	add    %rcx,%rax
  15345a:	5b                   	pop    %rbx
  15345b:	41 5c                	pop    %r12
  15345d:	41 5d                	pop    %r13
  15345f:	41 5e                	pop    %r14
  153461:	41 5f                	pop    %r15
  153463:	5d                   	pop    %rbp
  153464:	c3                   	ret
  153465:	cc                   	int3
  153466:	cc                   	int3
  153467:	cc                   	int3
  153468:	cc                   	int3
  153469:	cc                   	int3
  15346a:	cc                   	int3
  15346b:	cc                   	int3
  15346c:	cc                   	int3
  15346d:	cc                   	int3
  15346e:	cc                   	int3
  15346f:	cc                   	int3

0000000000153470 <_ZN4core4char7methods15encode_utf8_raw8do_panic7runtime17ha1c91fb6c2e6f752E>:
  153470:	55                   	push   %rbp
  153471:	48 89 e5             	mov    %rsp,%rbp
  153474:	48 81 ec 10 01 00 00 	sub    $0x110,%rsp
  15347b:	89 7d fc             	mov    %edi,-0x4(%rbp)
  15347e:	48 89 75 f0          	mov    %rsi,-0x10(%rbp)
  153482:	48 89 55 e8          	mov    %rdx,-0x18(%rbp)
  153486:	48 8d 45 f0          	lea    -0x10(%rbp),%rax
  15348a:	48 89 45 88          	mov    %rax,-0x78(%rbp)
  15348e:	48 8b 05 1b 13 00 00 	mov    0x131b(%rip),%rax        # 1547b0 <memset+0xf50>
  153495:	48 89 45 90          	mov    %rax,-0x70(%rbp)
  153499:	48 8d 55 fc          	lea    -0x4(%rbp),%rdx
  15349d:	48 89 55 98          	mov    %rdx,-0x68(%rbp)
  1534a1:	48 8b 15 30 13 00 00 	mov    0x1330(%rip),%rdx        # 1547d8 <memset+0xf78>
  1534a8:	48 89 55 a0          	mov    %rdx,-0x60(%rbp)
  1534ac:	48 8d 55 e8          	lea    -0x18(%rbp),%rdx
  1534b0:	48 89 55 a8          	mov    %rdx,-0x58(%rbp)
  1534b4:	48 89 45 b0          	mov    %rax,-0x50(%rbp)
  1534b8:	66 c7 85 f8 fe ff ff 	movw   $0x2,-0x108(%rbp)
  1534bf:	02 00 
  1534c1:	66 c7 85 08 ff ff ff 	movw   $0x2,-0xf8(%rbp)
  1534c8:	02 00 
  1534ca:	48 c7 85 18 ff ff ff 	movq   $0x0,-0xe8(%rbp)
  1534d1:	00 00 00 00 
  1534d5:	c7 85 20 ff ff ff 20 	movl   $0xe0000020,-0xe0(%rbp)
  1534dc:	00 00 e0 
  1534df:	66 c7 85 28 ff ff ff 	movw   $0x2,-0xd8(%rbp)
  1534e6:	02 00 
  1534e8:	c7 85 38 ff ff ff 00 	movl   $0x40000,-0xc8(%rbp)
  1534ef:	00 04 00 
  1534f2:	48 c7 85 48 ff ff ff 	movq   $0x1,-0xb8(%rbp)
  1534f9:	01 00 00 00 
  1534fd:	c7 85 50 ff ff ff 20 	movl   $0xe9000020,-0xb0(%rbp)
  153504:	00 00 e9 
  153507:	66 c7 85 58 ff ff ff 	movw   $0x2,-0xa8(%rbp)
  15350e:	02 00 
  153510:	66 c7 85 68 ff ff ff 	movw   $0x2,-0x98(%rbp)
  153517:	02 00 
  153519:	48 c7 85 78 ff ff ff 	movq   $0x2,-0x88(%rbp)
  153520:	02 00 00 00 
  153524:	c7 45 80 20 00 00 e0 	movl   $0xe0000020,-0x80(%rbp)
  15352b:	48 8d 05 46 1b 00 00 	lea    0x1b46(%rip),%rax        # 155078 <memset+0x1818>
  153532:	48 89 45 b8          	mov    %rax,-0x48(%rbp)
  153536:	48 c7 45 c0 03 00 00 	movq   $0x3,-0x40(%rbp)
  15353d:	00 
  15353e:	48 8d 85 f8 fe ff ff 	lea    -0x108(%rbp),%rax
  153545:	48 89 45 d8          	mov    %rax,-0x28(%rbp)
  153549:	48 c7 45 e0 03 00 00 	movq   $0x3,-0x20(%rbp)
  153550:	00 
  153551:	48 8d 45 88          	lea    -0x78(%rbp),%rax
  153555:	48 89 45 c8          	mov    %rax,-0x38(%rbp)
  153559:	48 c7 45 d0 03 00 00 	movq   $0x3,-0x30(%rbp)
  153560:	00 
  153561:	48 8d 7d b8          	lea    -0x48(%rbp),%rdi
  153565:	48 89 ce             	mov    %rcx,%rsi
  153568:	ff 15 3a 12 00 00    	call   *0x123a(%rip)        # 1547a8 <memset+0xf48>
  15356e:	cc                   	int3
  15356f:	cc                   	int3

0000000000153570 <_ZN4core9panicking11panic_const24panic_const_add_overflow17h0f963a673f748949E>:
  153570:	55                   	push   %rbp
  153571:	48 89 e5             	mov    %rsp,%rbp
  153574:	48 83 ec 30          	sub    $0x30,%rsp
  153578:	48 89 fe             	mov    %rdi,%rsi
  15357b:	48 8d 05 7e 1a 00 00 	lea    0x1a7e(%rip),%rax        # 155000 <memset+0x17a0>
  153582:	48 89 45 d0          	mov    %rax,-0x30(%rbp)
  153586:	48 c7 45 d8 01 00 00 	movq   $0x1,-0x28(%rbp)
  15358d:	00 
  15358e:	48 c7 45 f0 00 00 00 	movq   $0x0,-0x10(%rbp)
  153595:	00 
  153596:	48 c7 45 e0 08 00 00 	movq   $0x8,-0x20(%rbp)
  15359d:	00 
  15359e:	48 c7 45 e8 00 00 00 	movq   $0x0,-0x18(%rbp)
  1535a5:	00 
  1535a6:	48 8d 7d d0          	lea    -0x30(%rbp),%rdi
  1535aa:	ff 15 f8 11 00 00    	call   *0x11f8(%rip)        # 1547a8 <memset+0xf48>

00000000001535b0 <_ZN4core9panicking11panic_const24panic_const_sub_overflow17h57aacca942a96484E>:
  1535b0:	55                   	push   %rbp
  1535b1:	48 89 e5             	mov    %rsp,%rbp
  1535b4:	48 83 ec 30          	sub    $0x30,%rsp
  1535b8:	48 89 fe             	mov    %rdi,%rsi
  1535bb:	48 8d 05 4e 1a 00 00 	lea    0x1a4e(%rip),%rax        # 155010 <memset+0x17b0>
  1535c2:	48 89 45 d0          	mov    %rax,-0x30(%rbp)
  1535c6:	48 c7 45 d8 01 00 00 	movq   $0x1,-0x28(%rbp)
  1535cd:	00 
  1535ce:	48 c7 45 f0 00 00 00 	movq   $0x0,-0x10(%rbp)
  1535d5:	00 
  1535d6:	48 c7 45 e0 08 00 00 	movq   $0x8,-0x20(%rbp)
  1535dd:	00 
  1535de:	48 c7 45 e8 00 00 00 	movq   $0x0,-0x18(%rbp)
  1535e5:	00 
  1535e6:	48 8d 7d d0          	lea    -0x30(%rbp),%rdi
  1535ea:	ff 15 b8 11 00 00    	call   *0x11b8(%rip)        # 1547a8 <memset+0xf48>

00000000001535f0 <_ZN4core9panicking11panic_const24panic_const_neg_overflow17h03479479c49ca532E>:
  1535f0:	55                   	push   %rbp
  1535f1:	48 89 e5             	mov    %rsp,%rbp
  1535f4:	48 83 ec 30          	sub    $0x30,%rsp
  1535f8:	48 89 fe             	mov    %rdi,%rsi
  1535fb:	48 8d 05 1e 1a 00 00 	lea    0x1a1e(%rip),%rax        # 155020 <memset+0x17c0>
  153602:	48 89 45 d0          	mov    %rax,-0x30(%rbp)
  153606:	48 c7 45 d8 01 00 00 	movq   $0x1,-0x28(%rbp)
  15360d:	00 
  15360e:	48 c7 45 f0 00 00 00 	movq   $0x0,-0x10(%rbp)
  153615:	00 
  153616:	48 c7 45 e0 08 00 00 	movq   $0x8,-0x20(%rbp)
  15361d:	00 
  15361e:	48 c7 45 e8 00 00 00 	movq   $0x0,-0x18(%rbp)
  153625:	00 
  153626:	48 8d 7d d0          	lea    -0x30(%rbp),%rdi
  15362a:	ff 15 78 11 00 00    	call   *0x1178(%rip)        # 1547a8 <memset+0xf48>

0000000000153630 <_ZN4core9panicking11panic_const23panic_const_div_by_zero17h6053ec5858300e52E>:
  153630:	55                   	push   %rbp
  153631:	48 89 e5             	mov    %rsp,%rbp
  153634:	48 83 ec 30          	sub    $0x30,%rsp
  153638:	48 89 fe             	mov    %rdi,%rsi
  15363b:	48 8d 05 66 1a 00 00 	lea    0x1a66(%rip),%rax        # 1550a8 <memset+0x1848>
  153642:	48 89 45 d0          	mov    %rax,-0x30(%rbp)
  153646:	48 c7 45 d8 01 00 00 	movq   $0x1,-0x28(%rbp)
  15364d:	00 
  15364e:	48 c7 45 f0 00 00 00 	movq   $0x0,-0x10(%rbp)
  153655:	00 
  153656:	48 c7 45 e0 08 00 00 	movq   $0x8,-0x20(%rbp)
  15365d:	00 
  15365e:	48 c7 45 e8 00 00 00 	movq   $0x0,-0x18(%rbp)
  153665:	00 
  153666:	48 8d 7d d0          	lea    -0x30(%rbp),%rdi
  15366a:	ff 15 38 11 00 00    	call   *0x1138(%rip)        # 1547a8 <memset+0xf48>

0000000000153670 <_ZN4core3fmt3num53_$LT$impl$u20$core..fmt..UpperHex$u20$for$u20$i32$GT$3fmt17hae69c76b083dea41E>:
  153670:	55                   	push   %rbp
  153671:	48 89 e5             	mov    %rsp,%rbp
  153674:	48 81 ec 80 00 00 00 	sub    $0x80,%rsp
  15367b:	8b 07                	mov    (%rdi),%eax
  15367d:	45 31 c9             	xor    %r9d,%r9d
  153680:	89 c1                	mov    %eax,%ecx
  153682:	66 66 66 66 66 2e 0f 	data16 data16 data16 data16 cs nopw 0x0(%rax,%rax,1)
  153689:	1f 84 00 00 00 00 00 
  153690:	c1 e9 04             	shr    $0x4,%ecx
  153693:	89 c2                	mov    %eax,%edx
  153695:	80 e2 0f             	and    $0xf,%dl
  153698:	8d 7a 30             	lea    0x30(%rdx),%edi
  15369b:	44 8d 42 37          	lea    0x37(%rdx),%r8d
  15369f:	80 fa 0a             	cmp    $0xa,%dl
  1536a2:	40 0f b6 d7          	movzbl %dil,%edx
  1536a6:	41 0f b6 f8          	movzbl %r8b,%edi
  1536aa:	0f 42 fa             	cmovb  %edx,%edi
  1536ad:	42 88 7c 0d ff       	mov    %dil,-0x1(%rbp,%r9,1)
  1536b2:	49 ff c9             	dec    %r9
  1536b5:	83 f8 0f             	cmp    $0xf,%eax
  1536b8:	89 c8                	mov    %ecx,%eax
  1536ba:	77 d4                	ja     153690 <_ZN4core3fmt3num53_$LT$impl$u20$core..fmt..UpperHex$u20$for$u20$i32$GT$3fmt17hae69c76b083dea41E+0x20>
  1536bc:	4d 8d 04 29          	lea    (%r9,%rbp,1),%r8
  1536c0:	49 f7 d9             	neg    %r9
  1536c3:	48 8d 15 9e 0f 00 00 	lea    0xf9e(%rip),%rdx        # 154668 <memset+0xe08>
  1536ca:	b9 02 00 00 00       	mov    $0x2,%ecx
  1536cf:	48 89 f7             	mov    %rsi,%rdi
  1536d2:	be 01 00 00 00       	mov    $0x1,%esi
  1536d7:	ff 15 db 10 00 00    	call   *0x10db(%rip)        # 1547b8 <memset+0xf58>
  1536dd:	48 81 c4 80 00 00 00 	add    $0x80,%rsp
  1536e4:	5d                   	pop    %rbp
  1536e5:	c3                   	ret
  1536e6:	cc                   	int3
  1536e7:	cc                   	int3
  1536e8:	cc                   	int3
  1536e9:	cc                   	int3
  1536ea:	cc                   	int3
  1536eb:	cc                   	int3
  1536ec:	cc                   	int3
  1536ed:	cc                   	int3
  1536ee:	cc                   	int3
  1536ef:	cc                   	int3

00000000001536f0 <_ZN4core3fmt3num3imp52_$LT$impl$u20$core..fmt..Display$u20$for$u20$u64$GT$3fmt17h86bd1c46bb59e8c7E>:
  1536f0:	55                   	push   %rbp
  1536f1:	48 89 e5             	mov    %rsp,%rbp
  1536f4:	48 89 f2             	mov    %rsi,%rdx
  1536f7:	48 8b 3f             	mov    (%rdi),%rdi
  1536fa:	be 01 00 00 00       	mov    $0x1,%esi
  1536ff:	5d                   	pop    %rbp
  153700:	e9 0b 00 00 00       	jmp    153710 <_ZN4core3fmt3num3imp21_$LT$impl$u20$u64$GT$4_fmt17h8414965544d56f3dE>
  153705:	cc                   	int3
  153706:	cc                   	int3
  153707:	cc                   	int3
  153708:	cc                   	int3
  153709:	cc                   	int3
  15370a:	cc                   	int3
  15370b:	cc                   	int3
  15370c:	cc                   	int3
  15370d:	cc                   	int3
  15370e:	cc                   	int3
  15370f:	cc                   	int3

0000000000153710 <_ZN4core3fmt3num3imp21_$LT$impl$u20$u64$GT$4_fmt17h8414965544d56f3dE>:
  153710:	55                   	push   %rbp
  153711:	48 89 e5             	mov    %rsp,%rbp
  153714:	41 57                	push   %r15
  153716:	41 56                	push   %r14
  153718:	53                   	push   %rbx
  153719:	48 83 ec 18          	sub    $0x18,%rsp
  15371d:	48 89 d1             	mov    %rdx,%rcx
  153720:	41 ba 14 00 00 00    	mov    $0x14,%r10d
  153726:	4c 8d 0d 3d 0f 00 00 	lea    0xf3d(%rip),%r9        # 15466a <memset+0xe0a>
  15372d:	48 89 fa             	mov    %rdi,%rdx
  153730:	48 81 ff e8 03 00 00 	cmp    $0x3e8,%rdi
  153737:	72 69                	jb     1537a2 <_ZN4core3fmt3num3imp21_$LT$impl$u20$u64$GT$4_fmt17h8414965544d56f3dE+0x92>
  153739:	bb 14 00 00 00       	mov    $0x14,%ebx
  15373e:	49 bb 4b 59 86 38 d6 	movabs $0x346dc5d63886594b,%r11
  153745:	c5 6d 34 
  153748:	49 89 f8             	mov    %rdi,%r8
  15374b:	0f 1f 44 00 00       	nopl   0x0(%rax,%rax,1)
  153750:	4c 8d 53 fc          	lea    -0x4(%rbx),%r10
  153754:	4c 89 c0             	mov    %r8,%rax
  153757:	49 f7 e3             	mul    %r11
  15375a:	48 c1 ea 0b          	shr    $0xb,%rdx
  15375e:	69 c2 10 27 00 00    	imul   $0x2710,%edx,%eax
  153764:	45 89 c6             	mov    %r8d,%r14d
  153767:	41 29 c6             	sub    %eax,%r14d
  15376a:	41 69 c6 7b 14 00 00 	imul   $0x147b,%r14d,%eax
  153771:	c1 e8 13             	shr    $0x13,%eax
  153774:	44 6b f8 64          	imul   $0x64,%eax,%r15d
  153778:	45 29 fe             	sub    %r15d,%r14d
  15377b:	41 0f b7 04 41       	movzwl (%r9,%rax,2),%eax
  153780:	66 89 44 1d d0       	mov    %ax,-0x30(%rbp,%rbx,1)
  153785:	41 0f b7 c6          	movzwl %r14w,%eax
  153789:	41 0f b7 04 41       	movzwl (%r9,%rax,2),%eax
  15378e:	66 89 44 1d d2       	mov    %ax,-0x2e(%rbp,%rbx,1)
  153793:	4c 89 d3             	mov    %r10,%rbx
  153796:	49 81 f8 7f 96 98 00 	cmp    $0x98967f,%r8
  15379d:	49 89 d0             	mov    %rdx,%r8
  1537a0:	77 ae                	ja     153750 <_ZN4core3fmt3num3imp21_$LT$impl$u20$u64$GT$4_fmt17h8414965544d56f3dE+0x40>
  1537a2:	48 83 fa 09          	cmp    $0x9,%rdx
  1537a6:	76 2d                	jbe    1537d5 <_ZN4core3fmt3num3imp21_$LT$impl$u20$u64$GT$4_fmt17h8414965544d56f3dE+0xc5>
  1537a8:	89 d0                	mov    %edx,%eax
  1537aa:	c1 e8 02             	shr    $0x2,%eax
  1537ad:	0f b7 c0             	movzwl %ax,%eax
  1537b0:	69 c0 7b 14 00 00    	imul   $0x147b,%eax,%eax
  1537b6:	c1 e8 11             	shr    $0x11,%eax
  1537b9:	44 6b c0 64          	imul   $0x64,%eax,%r8d
  1537bd:	44 29 c2             	sub    %r8d,%edx
  1537c0:	0f b7 d2             	movzwl %dx,%edx
  1537c3:	41 0f b7 14 51       	movzwl (%r9,%rdx,2),%edx
  1537c8:	66 42 89 54 15 d2    	mov    %dx,-0x2e(%rbp,%r10,1)
  1537ce:	49 83 c2 fe          	add    $0xfffffffffffffffe,%r10
  1537d2:	48 89 c2             	mov    %rax,%rdx
  1537d5:	48 85 ff             	test   %rdi,%rdi
  1537d8:	74 05                	je     1537df <_ZN4core3fmt3num3imp21_$LT$impl$u20$u64$GT$4_fmt17h8414965544d56f3dE+0xcf>
  1537da:	48 85 d2             	test   %rdx,%rdx
  1537dd:	74 11                	je     1537f0 <_ZN4core3fmt3num3imp21_$LT$impl$u20$u64$GT$4_fmt17h8414965544d56f3dE+0xe0>
  1537df:	83 e2 0f             	and    $0xf,%edx
  1537e2:	41 0f b6 44 51 01    	movzbl 0x1(%r9,%rdx,2),%eax
  1537e8:	42 88 44 15 d3       	mov    %al,-0x2d(%rbp,%r10,1)
  1537ed:	49 ff ca             	dec    %r10
  1537f0:	41 b9 14 00 00 00    	mov    $0x14,%r9d
  1537f6:	4d 29 d1             	sub    %r10,%r9
  1537f9:	4d 8d 04 2a          	lea    (%r10,%rbp,1),%r8
  1537fd:	49 83 c0 d4          	add    $0xffffffffffffffd4,%r8
  153801:	40 0f b6 f6          	movzbl %sil,%esi
  153805:	ba 01 00 00 00       	mov    $0x1,%edx
  15380a:	48 89 cf             	mov    %rcx,%rdi
  15380d:	31 c9                	xor    %ecx,%ecx
  15380f:	ff 15 a3 0f 00 00    	call   *0xfa3(%rip)        # 1547b8 <memset+0xf58>
  153815:	48 83 c4 18          	add    $0x18,%rsp
  153819:	5b                   	pop    %rbx
  15381a:	41 5e                	pop    %r14
  15381c:	41 5f                	pop    %r15
  15381e:	5d                   	pop    %rbp
  15381f:	c3                   	ret

0000000000153820 <memcpy>:
  153820:	55                   	push   %rbp
  153821:	48 89 e5             	mov    %rsp,%rbp
  153824:	48 89 f8             	mov    %rdi,%rax
  153827:	41 89 c0             	mov    %eax,%r8d
  15382a:	41 f7 d8             	neg    %r8d
  15382d:	41 83 e0 07          	and    $0x7,%r8d
  153831:	4c 39 c2             	cmp    %r8,%rdx
  153834:	4c 0f 42 c2          	cmovb  %rdx,%r8
  153838:	4c 89 c1             	mov    %r8,%rcx
  15383b:	f3 a4                	rep movsb %ds:(%rsi),%es:(%rdi)
  15383d:	4c 29 c2             	sub    %r8,%rdx
  153840:	48 89 d1             	mov    %rdx,%rcx
  153843:	48 c1 e9 03          	shr    $0x3,%rcx
  153847:	f3 48 a5             	rep movsq %ds:(%rsi),%es:(%rdi)
  15384a:	83 e2 07             	and    $0x7,%edx
  15384d:	48 89 d1             	mov    %rdx,%rcx
  153850:	f3 a4                	rep movsb %ds:(%rsi),%es:(%rdi)
  153852:	5d                   	pop    %rbp
  153853:	c3                   	ret
  153854:	cc                   	int3
  153855:	cc                   	int3
  153856:	cc                   	int3
  153857:	cc                   	int3
  153858:	cc                   	int3
  153859:	cc                   	int3
  15385a:	cc                   	int3
  15385b:	cc                   	int3
  15385c:	cc                   	int3
  15385d:	cc                   	int3
  15385e:	cc                   	int3
  15385f:	cc                   	int3

0000000000153860 <memset>:
  153860:	55                   	push   %rbp
  153861:	48 89 e5             	mov    %rsp,%rbp
  153864:	49 89 d0             	mov    %rdx,%r8
  153867:	48 89 fa             	mov    %rdi,%rdx
  15386a:	89 d1                	mov    %edx,%ecx
  15386c:	f7 d9                	neg    %ecx
  15386e:	83 e1 07             	and    $0x7,%ecx
  153871:	49 39 c8             	cmp    %rcx,%r8
  153874:	49 0f 42 c8          	cmovb  %r8,%rcx
  153878:	40 0f b6 f6          	movzbl %sil,%esi
  15387c:	48 b8 01 01 01 01 01 	movabs $0x101010101010101,%rax
  153883:	01 01 01 
  153886:	48 0f af c6          	imul   %rsi,%rax
  15388a:	49 29 c8             	sub    %rcx,%r8
  15388d:	4c 89 c6             	mov    %r8,%rsi
  153890:	48 c1 ee 03          	shr    $0x3,%rsi
  153894:	41 83 e0 07          	and    $0x7,%r8d
  153898:	f3 aa                	rep stos %al,%es:(%rdi)
  15389a:	48 89 f1             	mov    %rsi,%rcx
  15389d:	f3 48 ab             	rep stos %rax,%es:(%rdi)
  1538a0:	4c 89 c1             	mov    %r8,%rcx
  1538a3:	f3 aa                	rep stos %al,%es:(%rdi)
  1538a5:	48 89 d0             	mov    %rdx,%rax
  1538a8:	5d                   	pop    %rbp
  1538a9:	c3                   	ret
